ccollections
defaultdict
p1
(c__builtin__
float
p2
tRp3
S'JX'
p4
F3.6808989668139908e-08
sS'VL'
p5
F9.9751866313155063e-06
sS'JY'
p6
F1.1778869973497432e-06
sS'JZ'
p7
F5.1532573205794301e-07
sS'JW'
p8
F5.8894367210209395e-07
sS'JT'
p9
F1.7300210497554871e-06
sS'JU'
p10
F0.00034690136576043468
sS'VM'
p11
F2.4293904118377152e-06
sS'JV'
p12
F8.4660641957727187e-07
sS'GW'
p13
F1.0232846960317198e-05
sS'GV'
p14
F2.0981102486638271e-06
sS'GU'
p15
F0.00092153004191695552
sS'GT'
p16
F0.00011649366879286783
sS'GS'
p17
F0.00028202751951839327
sS'GR'
p18
F0.0018149125319846329
sS'GQ'
p19
F4.0857895815109558e-06
sS'GP'
p20
F7.0673011729216638e-06
sS'JP'
p21
F1.1778869973497432e-06
sS'GZ'
p22
F5.0428189623130204e-06
sS'GY'
p23
F0.00041887218890811716
sS'GX'
p24
F5.7053772278709618e-06
sS'GG'
p25
F0.00049050671422655597
sS'GF'
p26
F1.4907529972187165e-05
sS'GE'
p27
F0.0045363783557069732
sS'GD'
p28
F2.9998877160841499e-05
sS'GC'
p29
F7.7666668022849624e-06
sS'GB'
p30
F1.1005827548989437e-05
sS'GA'
p31
F0.0013385828567636612
sS'GO'
p32
F0.00051004251239081591
sS'GN'
p33
F0.0015282819398575701
sS'GM'
p34
F0.00015572671211832003
sS'GL'
p35
F0.00088096630004558685
sS'GK'
p36
F9.0181619709248374e-06
sS'GJ'
p37
F8.870927326495213e-06
sS'GI'
p38
F0.0016298982101174242
sS'GH'
p39
F0.0011806504939841477
sS'JL'
p40
F1.4355495930762301e-06
sS'JM'
p41
F1.4355495930762301e-06
sS'JN'
p42
F6.0734649634968073e-06
sS'JO'
p43
F0.00017125756666378831
sS'VO'
p44
F0.00059480358921331928
sS'JH'
p45
F9.2022433523322594e-07
sS'JI'
p46
F8.1381366100894675e-05
sS'JJ'
p47
F1.2515048886175166e-06
sS'JK'
p48
F4.0121718988969569e-06
sS'JA'
p49
F0.00017118396128694497
sS'JB'
p50
F5.8894367210209395e-07
sS'JC'
p51
F2.0981102486638271e-06
sS'ZL'
p52
F7.1041099024505114e-06
sS'ZM'
p53
F5.9262298855050984e-06
sS'ZN'
p54
F3.1655681593046342e-06
sS'ZO'
p55
F0.00016190964045698577
sS'ZH'
p56
F6.5701889350476997e-05
sS'ZI'
p57
F0.00018395441309668694
sS'ZJ'
p58
F1.4723595054315002e-07
sS'ZK'
p59
F6.3679350544457383e-06
sS'ZD'
p60
F2.7606704652650925e-06
sS'ZE'
p61
F0.00076084678502952535
sS'ZF'
p62
F9.9384224546958273e-07
sS'ZG'
p63
F2.318963702973813e-06
sS'ZA'
p64
F0.00055746398282177461
sS'ZB'
p65
F3.7545099670688918e-06
sS'ZC'
p66
F2.4661993120825584e-06
sS'ZX'
p67
F3.6808989668139908e-08
sS'ZY'
p68
F0.00018141505670686721
sS'ZZ'
p69
F1.9508574589684399e-05
sS'ZT'
p70
F3.4600391065433196e-06
sS'ZU'
p71
F5.8156513623211918e-05
sS'ZV'
p72
F7.729884985017199e-07
sS'ZW'
p73
F3.4232302428806084e-06
sS'ZP'
p74
F1.361931715357439e-06
sS'ZQ'
p75
F1.0674601502863435e-06
sS'ZR'
p76
F1.2515048886175166e-06
sS'ZS'
p77
F2.9447148919701088e-06
sS'ME'
p78
F0.0070147638455923898
sS'MD'
p79
F7.030492442037932e-06
sS'MG'
p80
F4.1962160952702749e-06
sS'MF'
p81
F1.866198396930845e-05
sS'MA'
p82
F0.0054240858092063074
sS'MC'
p83
F5.8745423045409339e-05
sS'MB'
p84
F0.00096562239720514689
sS'MM'
p85
F0.0011772312912969893
sS'ML'
p86
F3.8464655136809937e-05
sS'MO'
p87
F0.0035527794838249738
sS'MN'
p88
F3.9200806356404585e-05
sS'MI'
p89
F0.0041757888856923308
sS'MH'
p90
F4.0489807408814027e-06
sS'MK'
p91
F9.8647607557059478e-06
sS'MJ'
p92
F9.9384224546958273e-07
sS'MU'
p93
F0.0018076007983330537
sS'MT'
p94
F1.0196038345953007e-05
sS'MW'
p95
F6.4415525636341239e-06
sS'MV'
p96
F6.5519788172550694e-06
sS'MQ'
p97
F1.1042691006623754e-06
sS'MP'
p98
F0.0031106330943988405
sS'MS'
p99
F0.00054701600095054671
sS'MR'
p100
F7.7298580971439848e-06
sS'MY'
p101
F0.00041280123055341948
sS'MX'
p102
F3.6808989668139908e-08
sS'MZ'
p103
F8.0979745971694569e-07
sS'FP'
p104
F2.0613013348700274e-06
sS'FQ'
p105
F3.6808989668139908e-08
sS'FR'
p106
F0.00055463126612855667
sS'FS'
p107
F4.1151604467480511e-05
sS'FT'
p108
F8.5871687397377238e-05
sS'FU'
p109
F0.0012402089233945
sS'FV'
p110
F6.9937057200656928e-07
sS'FW'
p111
F4.048988118299636e-07
sS'FX'
p112
F1.1042696493971482e-07
sS'FY'
p113
F0.00019830717581422635
sS'FZ'
p114
F3.6808983571083592e-07
sS'FA'
p115
F0.0012007978165012563
sS'FB'
p116
F1.2146959436610791e-06
sS'FC'
p117
F1.6564031937150574e-06
sS'FD'
p118
F1.1042691006623754e-06
sS'FE'
p119
F0.0028977813629913812
sS'FF'
p120
F0.0019695854244762166
sS'FG'
p121
F6.2943175398378149e-06
sS'FH'
p122
F2.0244924197213311e-06
sS'FI'
p123
F0.0029783767619112156
sS'FJ'
p124
F4.4170778659419061e-07
sS'FK'
p125
F1.8772567455775826e-06
sS'FL'
p126
F0.000702179377113678
sS'FM'
p127
F1.0011995253808942e-05
sS'FN'
p128
F1.4134552399450444e-05
sS'FO'
p129
F0.0015333905630610248
sS'JQ'
p130
F3.6808989668139908e-08
sS'JR'
p131
F7.729884985017199e-07
sS'SZ'
p132
F2.2121958505371645e-05
sS'SY'
p133
F0.0010495726913994773
sS'SX'
p134
F2.208539176853164e-07
sS'SS'
p135
F0.0046410601817679876
sS'SR'
p136
F8.1160530107101054e-05
sS'SQ'
p137
F4.5016381940131768e-05
sS'SP'
p138
F0.002892753110543809
sS'SW'
p139
F8.4767511898840059e-05
sS'SV'
p140
F2.6207657702399407e-05
sS'SU'
p141
F0.0042294512504634021
sS'ST'
p142
F0.0088408626445290982
sS'SK'
p143
F0.00018181988207063363
sS'SJ'
p144
F2.9815237732464306e-06
sS'SI'
p145
F0.0080363732138318822
sS'SH'
p146
F0.0012357973095268786
sS'SO'
p147
F0.0025886252897932868
sS'SN'
p148
F3.7323619675470498e-05
sS'SM'
p149
F0.00098768623214619852
sS'SL'
p150
F0.00037413020042097942
sS'SC'
p151
F0.002077621820834629
sS'SB'
p152
F2.3557476341653403e-05
sS'SA'
p153
F0.0012333709136038403
sS'SG'
p154
F5.8303741011275114e-05
sS'SF'
p155
F0.00027157665948059491
sS'SE'
p156
F0.0085319329088077503
sS'SD'
p157
F3.978972694189914e-05
sS'YI'
p158
F0.0002338569779811132
sS'YH'
p159
F4.7483484811567171e-06
sS'YK'
p160
F1.1447530474251725e-05
sS'YJ'
p161
F6.2575264009181906e-07
sS'YM'
p162
F0.0005778445910489911
sS'YL'
p163
F0.00068441295643912941
sS'YO'
p164
F0.00035440776717544133
sS'YN'
p165
F0.0005897269561496608
sS'YA'
p166
F0.000195031819899421
sS'YC'
p167
F0.00044970472969183792
sS'YB'
p168
F4.8181807600444044e-05
sS'YE'
p169
F0.00024257863079252059
sS'YD'
p170
F0.00019937442430060587
sS'YG'
p171
F0.00010802855137022913
sS'YF'
p172
F4.0489807408814027e-06
sS'YY'
p173
F2.245345890290067e-06
sS'YX'
p174
F8.9813533118497467e-06
sS'YZ'
p175
F0.00012705656264605926
sS'YQ'
p176
F1.4723595054315002e-07
sS'YP'
p177
F0.00074429520030502437
sS'YS'
p178
F0.0016182486952176088
sS'YR'
p179
F0.00014085808508669813
sS'YU'
p180
F6.6658859764706137e-05
sS'YT'
p181
F0.00064545814671713769
sS'YW'
p182
F5.0060101569105909e-06
sS'YV'
p183
F8.6132666465805789e-06
sS'LF'
p184
F0.00010681398516607465
sS'LG'
p185
F8.8300869202571157e-05
sS'LD'
p186
F0.00056647711891586795
sS'LE'
p187
F0.0071523349339513457
sS'LB'
p188
F9.135574097497499e-05
sS'LC'
p189
F0.00021950472549604112
sS'LA'
p190
F0.0066211343645168784
sS'LN'
p191
F5.8819036698798643e-05
sS'LO'
p192
F0.0033316573526741815
sS'LL'
p193
F0.0030879555318351335
sS'LM'
p194
F0.00019904320937500145
sS'LJ'
p195
F4.6011132080612358e-06
sS'LK'
p196
F6.6548440148263757e-05
sS'LH'
p197
F1.9103683512837746e-05
sS'LI'
p198
F0.0064254867087171433
sS'LV'
p199
F0.00034318494028395108
sS'LW'
p200
F1.3729659146703866e-05
sS'LT'
p201
F0.0022105482454830893
sS'LU'
p202
F0.0025057587446645304
sS'LR'
p203
F2.2931738050988192e-05
sS'LS'
p204
F0.0011881874048562601
sS'LP'
p205
F7.2143018707203257e-05
sS'LQ'
p206
F1.2883138322190556e-06
sS'LZ'
p207
F2.9778029819652083e-05
sS'LX'
p208
F1.0306511985554128e-06
sS'LY'
p209
F0.0045742292271984944
sS'RT'
p210
F0.0029963226673377663
sS'RU'
p211
F0.0010590961736685626
sS'RV'
p212
F0.00098437668793919771
sS'RW'
p213
F0.0001078445262826042
sS'RP'
p214
F0.00041714288937321918
sS'RQ'
p215
F8.46603194253632e-06
sS'RR'
p216
F0.0011570834939671189
sS'RS'
p217
F0.0025995659509515006
sS'RX'
p218
F2.1349191611027312e-06
sS'RY'
p219
F0.0020768504360510935
sS'RZ'
p220
F2.2048342150526681e-05
sS'RD'
p221
F0.0010494991506429692
sS'RE'
p222
F0.018616186364716281
sS'RF'
p223
F0.00048995484997853864
sS'RG'
p224
F0.0011457226044468494
sS'RA'
p225
F0.008841884224046458
sS'RB'
p226
F0.0003020089654769468
sS'RC'
p227
F0.00096735074851557132
sS'RL'
p228
F0.00041986561494809132
sS'RM'
p229
F0.0019607686104297114
sS'RN'
p230
F0.00082418165271594792
sS'RO'
p231
F0.009317462081251943
sS'RH'
p232
F0.00016485387861052365
sS'RI'
p233
F0.0072712872351142366
sS'RJ'
p234
F1.1410721904598326e-05
sS'RK'
p235
F0.00048664365809478194
sS'JS'
p236
F2.9079060093388935e-06
sS'VA'
p237
F0.0027589996551079868
sS'VC'
p238
F1.4723585299032788e-06
sS'VH'
p239
F4.048988118299636e-07
sS'VI'
p240
F0.0031087616645297297
sS'VJ'
p241
F3.6808983571083592e-07
sS'EM'
p242
F0.0032986389040532624
sS'EL'
p243
F0.0055630838466365099
sS'EO'
p244
F0.00077335224513425463
sS'EN'
p245
F0.016054971407101305
sS'EI'
p246
F0.0016503672183033719
sS'EH'
p247
F0.00032206360646283984
sS'EK'
p248
F7.5897257822867936e-05
sS'EJ'
p249
F3.6550659429680885e-05
sS'EE'
p250
F0.0011205002330256504
sS'ED'
p251
F0.013209106791597362
sS'EG'
p252
F0.0017665953114551262
sS'EF'
p253
F0.0016971834465364052
sS'EA'
p254
F0.0048563984118069467
sS'EC'
p255
F0.0068997656247213436
sS'EB'
p256
F0.00027676530434842683
sS'EY'
p257
F0.00031315865955871088
sS'EX'
p258
F0.0028312375521532657
sS'EZ'
p259
F6.3162232657218702e-05
sS'EU'
p260
F0.00096845394991778449
sS'ET'
p261
F0.005229082599236828
sS'EW'
p262
F0.0003567627050275286
sS'EV'
p263
F0.0030335713203583012
sS'EQ'
p264
F0.00077791302107819971
sS'EP'
p265
F0.0026815069632339103
sS'ES'
p266
F0.015092396036339611
sS'ER'
p267
F0.015347000926763277
sS'VP'
p268
F4.4170778659419061e-07
sS'VQ'
p269
F2.208539176853164e-07
sS'VR'
p270
F8.9445446514197793e-06
sS'VS'
p271
F9.7175262359249533e-06
sS'VT'
p272
F9.2022433523322594e-07
sS'VU'
p273
F3.8795923252689961e-05
sS'VV'
p274
F5.521347027574686e-07
sS'VW'
p275
F1.8404493479168385e-07
sS'VX'
p276
F3.6808989668139908e-08
sS'VZ'
p277
F2.9447187940787808e-07
sS'XJ'
p278
F3.6808989668139908e-08
sS'XK'
p279
F1.1042696493971482e-07
sS'XH'
p280
F8.392097652428904e-05
sS'XI'
p281
F0.00073881472632345967
sS'XN'
p282
F1.9508745853592498e-06
sS'XO'
p283
F8.8080034736847754e-05
sS'XL'
p284
F2.1717280721867391e-06
sS'XM'
p285
F1.840447823654404e-06
sS'XB'
p286
F1.8404493479168385e-07
sS'XC'
p287
F0.00017166239613958438
sS'XA'
p288
F0.0003262952683124404
sS'XF'
p289
F3.2023770324515949e-06
sS'XG'
p290
F7.361795359315945e-07
sS'XD'
p291
F2.9447187940787808e-07
sS'XE'
p292
F0.00016750368553712788
sS'XZ'
p293
F7.3617977981378144e-08
sS'XX'
p294
F7.729884985017199e-07
sS'XY'
p295
F0.00015745646377879466
sS'XR'
p296
F3.3128085823680741e-07
sS'XS'
p297
F3.239185904243663e-06
sS'XP'
p298
F0.0014047482203521366
sS'XQ'
p299
F1.4355495930762301e-06
sS'XV'
p300
F2.245345890290067e-06
sS'XW'
p301
F7.729884985017199e-07
sS'XT'
p302
F0.00036463698819643256
sS'XU'
p303
F5.4991119536982542e-05
sS'KC'
p304
F2.687052685098827e-06
sS'KB'
p305
F1.0122421113160004e-05
sS'KA'
p306
F0.00044216225086496591
sS'KG'
p307
F0.0002619720755990257
sS'KF'
p308
F8.1347537791763198e-06
sS'KE'
p309
F0.00097882398360945515
sS'KD'
p310
F3.099268959262165e-05
sS'KK'
p311
F1.3508808212471288e-05
sS'KJ'
p312
F2.9079060093388935e-06
sS'KI'
p313
F0.00089258763089551869
sS'KH'
p314
F5.0537466705212956e-05
sS'KO'
p315
F0.00020853799373913548
sS'KN'
p316
F0.00020290737668108528
sS'KM'
p317
F1.0564124428625587e-05
sS'KL'
p318
F6.3272652647565426e-05
sS'KS'
p319
F0.0001337181212590495
sS'KR'
p320
F6.3309459308304864e-05
sS'KQ'
p321
F7.3617977981378144e-08
sS'KP'
p322
F1.6416674939788039e-05
sS'KW'
p323
F1.2662212512732008e-05
sS'KV'
p324
F2.1349191611027312e-06
sS'KU'
p325
F7.14436980990144e-05
sS'KT'
p326
F1.3582425195968273e-05
sS'KZ'
p327
F2.208539176853164e-07
sS'KY'
p328
F3.9752919415466688e-05
sS'KX'
p329
F7.729884985017199e-07
sS'DN'
p330
F6.4671304803289817e-05
sS'DO'
p331
F0.0013471846016019228
sS'DL'
p332
F0.00018299755492430292
sS'DM'
p333
F0.00014479608456052025
sS'DJ'
p334
F0.0001181130743951945
sS'DK'
p335
F3.9017453648142766e-06
sS'DH'
p336
F0.00014523772839420071
sS'DI'
p337
F0.0073279627554429317
sS'DF'
p338
F1.3177531719669011e-05
sS'DG'
p339
F0.0001134020689970729
sS'DD'
p340
F0.00035289913219958998
sS'DE'
p341
F0.0077074342337207944
sS'DB'
p342
F4.5458069843091465e-05
sS'DC'
p343
F7.2513448070170787e-06
sS'DA'
p344
F0.0012860517922455845
sS'DZ'
p345
F7.5090058378456153e-06
sS'DX'
p346
F3.6808989668139908e-08
sS'DY'
p347
F0.0003842488351582027
sS'DV'
p348
F0.0001392755201821687
sS'DW'
p349
F5.8855843523461182e-05
sS'DT'
p350
F3.20969244695638e-05
sS'DU'
p351
F0.0023479371783981778
sS'DR'
p352
F0.00095845154603114947
sS'DS'
p353
F0.00084628538642180342
sS'DP'
p354
F1.5827740589257095e-05
sS'DQ'
p355
F9.2022433523322594e-07
sS'QQ'
p356
F1.8404493479168385e-07
sS'QP'
p357
F2.208539176853164e-07
sS'QS'
p358
F1.1042696493971482e-07
sS'QR'
p359
F4.4170778659419061e-07
sS'QU'
p360
F0.0015735603382507483
sS'QT'
p361
F1.4723595054315002e-07
sS'QW'
p362
F1.1042696493971482e-07
sS'QV'
p363
F1.3987406548942835e-06
sS'QY'
p364
F3.6808989668139908e-08
sS'QX'
p365
F1.1042696493971482e-07
sS'QZ'
p366
F3.6808989668139908e-08
sS'QA'
p367
F1.0306511985554128e-06
sS'QC'
p368
F9.5703329102885403e-07
sS'QB'
p369
F1.8404493479168385e-07
sS'QE'
p370
F2.208539176853164e-07
sS'QD'
p371
F7.3617977981378144e-08
sS'QG'
p372
F3.6808989668139908e-08
sS'QF'
p373
F3.6808989668139908e-08
sS'QI'
p374
F2.5839577377849729e-05
sS'QH'
p375
F3.6808989668139908e-08
sS'QK'
p376
F1.4723595054315002e-07
sS'QJ'
p377
F3.6808989668139908e-08
sS'QM'
p378
F2.3557726072833421e-06
sS'QL'
p379
F8.4660641957727187e-07
sS'QO'
p380
F1.8036389003763287e-06
sS'QN'
p381
F3.6808989668139908e-08
sS'WG'
p382
F1.0306511985554128e-06
sS'WF'
p383
F2.3557726072833421e-06
sS'WE'
p384
F0.0014841041239207467
sS'WD'
p385
F1.0821784605881434e-05
sS'WC'
p386
F4.8587749217519949e-06
sS'WB'
p387
F1.2551786933839253e-05
sS'WA'
p388
F0.00067227422664817228
sS'WO'
p389
F0.00028920322285188601
sS'WN'
p390
F0.00014788758730025661
sS'WM'
p391
F3.9017453648142766e-06
sS'WL'
p392
F8.7491142589831252e-05
sS'WK'
p393
F1.9508745853592498e-06
sS'WJ'
p394
F3.6808989668139908e-08
sS'WI'
p395
F0.00076695241155933023
sS'WH'
p396
F0.0002500490155469941
sS'WW'
p397
F1.1042696493971482e-07
sS'WV'
p398
F1.8404493479168385e-07
sS'WU'
p399
F5.8894211126199572e-06
sS'WT'
p400
F0.00018579452239329133
sS'WS'
p401
F0.00010302305691993183
sS'WR'
p402
F2.4256830438454086e-05
sS'WQ'
p403
F3.6808989668139908e-08
sS'WP'
p404
F2.2085369819158509e-06
sS'JD'
p405
F1.6932121224127209e-06
sS'JE'
p406
F0.00055540382602250408
sS'JF'
p407
F1.8404493479168385e-07
sS'JG'
p408
F4.7851676000351696e-07
sS'WZ'
p409
F1.4723595054315002e-07
sS'WY'
p410
F3.6808922600668505e-06
sS'WX'
p411
F1.8404493479168385e-07
sS'PR'
p412
F0.0071400917281126963
sS'PS'
p413
F0.00054495582262666076
sS'PP'
p414
F0.0010017700588994031
sS'PQ'
p415
F4.4170778659419061e-07
sS'PV'
p416
F1.8772567455775826e-06
sS'PW'
p417
F6.6624050586820592e-06
sS'PT'
p418
F0.0016898341051861812
sS'PU'
p419
F0.00073995496163970712
sS'PZ'
p420
F1.1042696493971482e-07
sS'PX'
p421
F7.729884985017199e-07
sS'PY'
p422
F0.00034649660722033766
sS'PB'
p423
F6.5519788172550694e-06
sS'PC'
p424
F8.502840620579704e-06
sS'PA'
p425
F0.0042460552103029472
sS'PF'
p426
F1.494433841312829e-05
sS'PG'
p427
F2.8342882400117812e-06
sS'PD'
p428
F1.6637525231816542e-05
sS'PE'
p429
F0.0043771545000238256
sS'PJ'
p430
F2.208539176853164e-07
sS'PK'
p431
F6.2575087805015256e-06
sS'PH'
p432
F0.0023489654125323787
sS'PI'
p433
F0.0013754154493629228
sS'PN'
p434
F4.9249216319837283e-05
sS'PO'
p435
F0.004286812547609751
sS'PL'
p436
F0.0025314235084011355
sS'PM'
p437
F0.00027912042505057178
sS'CK'
p438
F0.00076231802374705565
sS'CJ'
p439
F4.048988118299636e-07
sS'CI'
p440
F0.0039352258776456572
sS'CH'
p441
F0.0041723799086865552
sS'CO'
p442
F0.0082934743188879979
sS'CN'
p443
F1.2367744275253973e-05
sS'CM'
p444
F8.1347537791763198e-06
sS'CL'
p445
F0.002315987948146061
sS'CC'
p446
F0.00088813770687428632
sS'CB'
p447
F1.4723585299032788e-06
sS'CA'
p448
F0.0060532482185078037
sS'CG'
p449
F7.7298580971439848e-06
sS'CF'
p450
F3.3496125114905086e-06
sS'CE'
p451
F0.0066043138271083563
sS'CD'
p452
F1.3251148727553577e-05
sS'CZ'
p453
F1.9434958042451382e-05
sS'CY'
p454
F0.0011068592977036395
sS'CX'
p455
F6.6256160672664413e-07
sS'CS'
p456
F0.00032839269407005479
sS'CR'
p457
F0.0024562998958761631
sS'CQ'
p458
F6.5701889350476997e-05
sS'CP'
p459
F3.2023770324515949e-06
sS'CW'
p460
F8.8341537808269865e-07
sS'CV'
p461
F1.2515048886175166e-06
sS'CU'
p462
F0.0019301663151927266
sS'CT'
p463
F0.0081670495876619374
sS'IY'
p464
F3.9200806356404585e-05
sS'IX'
p465
F9.6214072041096718e-05
sS'VB'
p466
F4.048988118299636e-07
sS'IZ'
p467
F0.0011132569563076849
sS'VD'
p468
F2.0613013348700274e-06
sS'VE'
p469
F0.0071881500187718737
sS'VF'
p470
F2.5766289922404776e-07
sS'VG'
p471
F1.8772567455775826e-06
sS'IQ'
p472
F0.00021442618681535874
sS'IP'
p473
F0.0012875957817188115
sS'IS'
p474
F0.0065432455848279314
sS'IR'
p475
F0.0017081706111213932
sS'IU'
p476
F0.00032107008325900414
sS'IT'
p477
F0.007271908454230808
sS'IW'
p478
F1.6269441384671898e-05
sS'IV'
p479
F0.0044897681506506429
sS'II'
p480
F5.3702874889017754e-05
sS'IH'
p481
F5.5469609983543514e-05
sS'IK'
p482
F0.0002476938263770949
sS'IJ'
p483
F4.2145405815608931e-05
sS'IM'
p484
F0.0034544397291369727
sS'IL'
p485
F0.0027798126331568273
sS'IO'
p486
F0.013481260274619796
sS'IN'
p487
F0.021772798344522046
sS'IA'
p488
F0.0051417838239568364
sS'VY'
p489
F2.4293904118377152e-06
sS'IC'
p490
F0.0098897669322834357
sS'IB'
p491
F0.0016653971568203654
sS'IE'
p492
F0.0041148654156324561
sS'ID'
p493
F0.0032408173056082271
sS'IG'
p494
F0.0026188036017661901
sS'IF'
p495
F0.0026893996721715318
sS'BD'
p496
F4.5163611262794803e-05
sS'BE'
p497
F0.0023042729746268172
sS'BF'
p498
F8.7973099961511368e-06
sS'BG'
p499
F1.9471766316745313e-05
sS'BA'
p500
F0.0012824491408706248
sS'BB'
p501
F4.976451667313826e-05
sS'BC'
p502
F3.9752919415466688e-05
sS'BL'
p503
F0.0015355957160920306
sS'BM'
p504
F2.1201753680292305e-05
sS'BN'
p505
F5.2341014456633853e-05
sS'BO'
p506
F0.00082973521579284427
sS'BH'
p507
F2.3189395041622635e-05
sS'BI'
p508
F0.0025376651968586584
sS'BJ'
p509
F0.00031801591315493713
sS'BK'
p510
F1.5459763994926828e-06
sS'BT'
p511
F0.00013787697236797175
sS'BU'
p512
F0.00068066100114624732
sS'BV'
p513
F9.2390138969229504e-06
sS'BW'
p514
F1.8036389003763287e-06
sS'BP'
p515
F1.36560421740458e-05
sS'BQ'
p516
F7.3617977981378144e-08
sS'BR'
p517
F0.00095683350070712543
sS'BS'
p518
F0.00066053998111873457
sS'BX'
p519
F3.6808989668139908e-08
sS'BY'
p520
F5.2782699124404531e-05
sS'BZ'
p521
F3.6808983571083592e-07
sS'OO'
p522
F0.00043561312554478041
sS'ON'
p523
F0.019099490108414621
sS'OM'
p524
F0.0049862456872358848
sS'OL'
p525
F0.0046629331589421001
sS'OK'
p526
F0.00028865124750045574
sS'OJ'
p527
F4.7813735364059214e-05
sS'OI'
p528
F0.00061205659156263875
sS'OH'
p529
F0.00026384884062063046
sS'OG'
p530
F0.0023008576116816102
sS'OF'
p531
F0.00038480075774465769
sS'OE'
p532
F0.00019687190881251783
sS'OD'
p533
F0.0022617086398127118
sS'OC'
p534
F0.0027396178680405381
sS'OB'
p535
F0.0013372962646361381
sS'OA'
p536
F0.00043951317163155645
sS'OZ'
p537
F7.8620912673229638e-05
sS'OY'
p538
F0.00010460567919733186
sS'OX'
p539
F0.00064913666388627129
sS'OW'
p540
F0.001446760953745161
sS'OV'
p541
F0.001428125602162893
sS'OU'
p542
F0.0031232926750641606
sS'OT'
p543
F0.0032806250463332312
sS'OS'
p544
F0.0035893472280234106
sS'OR'
p545
F0.0080645984196472658
sS'OQ'
p546
F1.6011782611056618e-05
sS'OP'
p547
F0.0030466722409146713
sS'HZ'
p548
F1.0306511985554128e-06
sS'HX'
p549
F1.8404493479168385e-07
sS'HY'
p550
F0.0013542423882594713
sS'HR'
p551
F0.00088103985319717211
sS'HS'
p552
F0.00015488023681113638
sS'HP'
p553
F2.3152586904167946e-05
sS'HQ'
p554
F1.6932121224127209e-06
sS'HV'
p555
F3.5336568298040652e-06
sS'HW'
p556
F0.00025280899579657723
sS'HT'
p557
F0.00036349632484881396
sS'HU'
p558
F0.00025593696420409884
sS'HJ'
p559
F1.5459763994926828e-06
sS'HK'
p560
F7.5090058378456153e-06
sS'HH'
p561
F4.4538779132875258e-06
sS'HI'
p562
F0.0028521224351013216
sS'HN'
p563
F0.00020187693352612584
sS'HO'
p564
F0.0036474420778579613
sS'HL'
p565
F0.00025262499735026006
sS'HM'
p566
F0.00019061559269335654
sS'HB'
p567
F2.1385794713050338e-05
sS'HC'
p568
F2.3410243837899156e-05
sS'HA'
p569
F0.0031039913372570144
sS'HF'
p570
F6.6992138031146217e-06
sS'HG'
p571
F2.245345890290067e-06
sS'HD'
p572
F1.3803276113942477e-05
sS'HE'
p573
F0.0045315781912262133
sS'UY'
p574
F2.5140224387949112e-05
sS'UX'
p575
F4.181413880930402e-05
sS'UZ'
p576
F2.9962069274030314e-05
sS'UU'
p577
F7.0673011729216638e-06
sS'UT'
p578
F0.002296964818186184
sS'UW'
p579
F6.6624050586820592e-06
sS'UV'
p580
F5.0611080962822371e-05
sS'UQ'
p581
F3.0551415317343921e-06
sS'UP'
p582
F0.00081623742940202342
sS'US'
p583
F0.0030667453072437474
sS'UR'
p584
F0.0045844153738998344
sS'UM'
p585
F0.0014478268706532257
sS'UL'
p586
F0.0046395213613405276
sS'UO'
p587
F0.00017210402810808603
sS'UN'
p588
F0.0030771669963053356
sS'UI'
p589
F0.000734143426131595
sS'UH'
p590
F2.436725472481827e-05
sS'UK'
p591
F0.00016750368553712788
sS'UJ'
p592
F1.3398382727064319e-05
sS'UE'
p593
F0.0014940277633531077
sS'UD'
p594
F0.0010074329516035604
sS'UG'
p595
F0.00093785804652299245
sS'UF'
p596
F8.5687658232287925e-05
sS'UA'
p597
F0.0012481497793114609
sS'UC'
p598
F0.0024175609303489429
sS'UB'
p599
F0.00099853410581321835
sS'NH'
p600
F0.0006000641310679038
sS'NI'
p601
F0.0046929023910212394
sS'NJ'
p602
F0.00023466658608626193
sS'NK'
p603
F0.00027120866946048422
sS'NL'
p604
F0.00013809779583709005
sS'NM'
p605
F0.00018071581251071823
sS'NN'
p606
F0.0006886063015783295
sS'NO'
p607
F0.0028225751528682856
sS'NA'
p608
F0.0051802343075569683
sS'NB'
p609
F6.0328115399075084e-05
sS'NC'
p610
F0.0060925051373572877
sS'ND'
p611
F0.0049074968833528925
sS'NE'
p612
F0.0062182778780339107
sS'NF'
p613
F0.0013605281875636612
sS'NG'
p614
F0.0081329490456790773
sS'NX'
p615
F3.2133732277795563e-05
sS'NY'
p616
F0.00015506425324321492
sS'NZ'
p617
F0.00023981862230714875
sS'NP'
p618
F5.8009286213472803e-05
sS'NQ'
p619
F7.8402842085022774e-06
sS'NR'
p620
F0.0001364048146610161
sS'NS'
p621
F0.0070440413186788065
sS'NT'
p622
F0.013102811343699733
sS'NU'
p623
F0.00084963216540907317
sS'NV'
p624
F0.00079126420527602455
sS'NW'
p625
F2.7495937771394714e-05
sS'VN'
p626
F1.840447823654404e-06
sS'TZ'
p627
F5.2156979120818772e-05
sS'TX'
p628
F1.4723585299032788e-06
sS'TY'
p629
F0.0027454177603754644
sS'TV'
p630
F3.607274547645242e-06
sS'TW'
p631
F0.00064538457623573365
sS'TT'
p632
F0.0009277082371756737
sS'TU'
p633
F0.0022588072947803696
sS'TR'
p634
F0.0065479629651986017
sS'TS'
p635
F0.0040035293655038429
sS'TP'
p636
F6.4266432012020407e-05
sS'TQ'
p637
F2.5766289922404776e-07
sS'TN'
p638
F0.00010107237950395236
sS'TO'
p639
F0.0043552386220316458
sS'TL'
p640
F0.00079262505977053838
sS'TM'
p641
F0.000503972107503805
sS'TJ'
p642
F3.8649365174102675e-06
sS'TK'
p643
F1.0748167419154128e-05
sS'TH'
p644
F0.0054199488846930011
sS'TI'
p645
F0.022372720569217734
sS'TF'
p646
F4.6194215914495239e-05
sS'TG'
p647
F1.656390847322647e-05
sS'TD'
p648
F7.8034755060710599e-06
sS'TE'
p649
F0.014733816351816861
sS'TB'
p650
F2.2342807537390338e-05
sS'TC'
p651
F0.00027750128016367274
sS'TA'
p652
F0.0058572332565635151
sS'AA'
p653
F3.7065966326592568e-05
sS'AC'
p654
F0.0055378262243789417
sS'AB'
p655
F0.0021652252215995731
sS'AE'
p656
F0.00036850051567466341
sS'AD'
p657
F0.0019742509571245665
sS'AG'
p658
F0.0017311734477102197
sS'AF'
p659
F0.00045779903392866906
sS'AI'
p660
F0.0019422163103287892
sS'AH'
p661
F0.00012635728043900241
sS'AK'
p662
F0.00040091676295820299
sS'AJ'
p663
F8.1602202045919785e-05
sS'AM'
p664
F0.0024987825147726127
sS'AL'
p665
F0.012464655861703334
sS'AO'
p666
F9.6545321026991751e-05
sS'AN'
p667
F0.010552950760593474
sS'AQ'
p668
F5.7604410724923811e-05
sS'AP'
p669
F0.0019268231505674171
sS'AS'
p670
F0.0058569039103141731
sS'AR'
p671
F0.0080217673611642192
sS'AU'
p672
F0.0007704465786450706
sS'AT'
p673
F0.016544220946107125
sS'AW'
p674
F0.00010519456126582137
sS'AV'
p675
F0.00070773361777735856
sS'AY'
p676
F0.00062544677628521925
sS'AX'
p677
F0.00014129973065957484
sS'AZ'
p678
F0.00016448584931539177
sS'VK'
p679
F1.2883138322190556e-06
s.