ccollections
defaultdict
p1
(c__builtin__
float
p2
tRp3
S'JX'
p4
F8.8407609649637601e-08
sS'VL'
p5
F0.0062204223601191799
sS'JY'
p6
F8.8407609649637601e-08
sS'JZ'
p7
F8.8407609649637601e-08
sS'JW'
p8
F8.8407609649637601e-08
sS'JT'
p9
F8.8407609649637601e-08
sS'JU'
p10
F8.8407609649637601e-08
sS'VM'
p11
F0.0011943805635484803
sS'JV'
p12
F8.8407609649637601e-08
sS'GW'
p13
F0.0007838682272666744
sS'GV'
p14
F0.0035138567095226768
sS'GU'
p15
F4.4203797008915435e-07
sS'GT'
p16
F0.0036079404210147821
sS'GS'
p17
F0.005864001173011839
sS'GR'
p18
F0.0037655196173284615
sS'GQ'
p19
F0.002810415051365298
sS'GP'
p20
F0.0045023506022842099
sS'JP'
p21
F8.8407609649637601e-08
sS'GZ'
p22
F5.3044554065928202e-07
sS'GY'
p23
F0.0017254648522024355
sS'GX'
p24
F1.8565581613042296e-06
sS'GG'
p25
F0.0052016132465596892
sS'GF'
p26
F0.0024298462410165546
sS'GE'
p27
F0.0043229691842745586
sS'GD'
p28
F0.0030812043694999651
sS'GC'
p29
F0.0013666430918904172
sS'GB'
p30
F7.072606583518451e-07
sS'GA'
p31
F0.0046649807188360636
sS'GO'
p32
F8.8407609649637601e-08
sS'GN'
p33
F0.0023543501341014923
sS'GM'
p34
F0.0011921730090054359
sS'GL'
p35
F0.0060090103272983537
sS'GK'
p36
F0.0039365472994827358
sS'GJ'
p37
F8.8407609649637601e-08
sS'GI'
p38
F0.0027107898536194532
sS'GH'
p39
F0.0017266121691554071
sS'JL'
p40
F8.8407609649637601e-08
sS'JM'
p41
F8.8407609649637601e-08
sS'JN'
p42
F8.8407609649637601e-08
sS'JO'
p43
F8.8407609649637601e-08
sS'VO'
p44
F8.8407609649637601e-08
sS'JH'
p45
F8.8407609649637601e-08
sS'JI'
p46
F8.8407609649637601e-08
sS'JJ'
p47
F8.8407609649637601e-08
sS'JK'
p48
F8.8407609649637601e-08
sS'JA'
p49
F8.8407609649637601e-08
sS'JB'
p50
F8.8407609649637601e-08
sS'JC'
p51
F8.8407609649637601e-08
sS'ZL'
p52
F2.6522280550119998e-07
sS'ZM'
p53
F3.5363039170312741e-07
sS'ZN'
p54
F8.8407609649637601e-08
sS'ZO'
p55
F8.8407609649637601e-08
sS'ZH'
p56
F8.8407609649637601e-08
sS'ZI'
p57
F2.6522280550119998e-07
sS'ZJ'
p58
F8.8407609649637601e-08
sS'ZK'
p59
F1.7681521148337045e-07
sS'ZD'
p60
F8.8407609649637601e-08
sS'ZE'
p61
F8.8407609649637601e-08
sS'ZF'
p62
F8.8407609649637601e-08
sS'ZG'
p63
F4.4203797008915435e-07
sS'ZA'
p64
F1.7681521148337045e-07
sS'ZB'
p65
F1.1492983158051134e-06
sS'ZC'
p66
F8.8407609649637601e-08
sS'ZX'
p67
F8.8407609649637601e-08
sS'ZY'
p68
F2.6522280550119998e-07
sS'ZZ'
p69
F2.6522280550119998e-07
sS'ZT'
p70
F1.7681521148337045e-07
sS'ZU'
p71
F8.8407609649637601e-08
sS'ZV'
p72
F8.8407609649637601e-08
sS'ZW'
p73
F4.4203797008915435e-07
sS'ZP'
p74
F7.072606583518451e-07
sS'ZQ'
p75
F8.8407609649637601e-08
sS'ZR'
p76
F1.7681521148337045e-07
sS'ZS'
p77
F7.072606583518451e-07
sS'ME'
p78
F0.0018132749216380791
sS'MD'
p79
F0.0012092152036696547
sS'MG'
p80
F0.0012852392804695734
sS'MF'
p81
F0.00071584539135604956
sS'MA'
p82
F0.0019698136477766283
sS'MC'
p83
F0.00039262953035994403
sS'MB'
p84
F1.7681521148337045e-07
sS'MM'
p85
F0.0005071542621274273
sS'ML'
p86
F0.0019614314169940895
sS'MO'
p87
F8.8407609649637601e-08
sS'MN'
p88
F0.00087511756995709358
sS'MI'
p89
F0.00082167632239069197
sS'MH'
p90
F0.0004634137251536688
sS'MK'
p91
F0.0014071659461898599
sS'MJ'
p92
F8.8407609649637601e-08
sS'MU'
p93
F8.8407609649637601e-08
sS'MT'
p94
F0.0010983915911683027
sS'MW'
p95
F0.00024273784361488447
sS'MV'
p96
F0.0013451891512708354
sS'MQ'
p97
F0.00089781819434448353
sS'MP'
p98
F0.0010934461875412274
sS'MS'
p99
F0.0015441722371292224
sS'MR'
p100
F0.0010212934997052884
sS'MY'
p101
F0.00058358515337489185
sS'MX'
p102
F1.5029283010817326e-06
sS'MZ'
p103
F1.7681521148337045e-07
sS'FP'
p104
F0.0020312223745759719
sS'FQ'
p105
F0.0018340128577085308
sS'FR'
p106
F0.0019779311095663686
sS'FS'
p107
F0.0035162353393834245
sS'FT'
p108
F0.0020694244642525685
sS'FU'
p109
F8.8407609649637601e-08
sS'FV'
p110
F0.0021169765277056856
sS'FW'
p111
F0.0005012339377643253
sS'FX'
p112
F8.8407609649637601e-08
sS'FY'
p113
F0.0012244911209523606
sS'FZ'
p114
F8.8407609649637601e-08
sS'FA'
p115
F0.0019582549743398622
sS'FB'
p116
F3.5363039170312741e-07
sS'FC'
p117
F0.00096680019797400565
sS'FD'
p118
F0.0016187586214590677
sS'FE'
p119
F0.0019449314521774637
sS'FF'
p120
F0.0016051657777909477
sS'FG'
p121
F0.0022042229491029321
sS'FH'
p122
F0.0010635083112815952
sS'FI'
p123
F0.0018290710906967746
sS'FJ'
p124
F8.8407609649637601e-08
sS'FK'
p125
F0.0017597955360311088
sS'FL'
p126
F0.0041689113716189665
sS'FM'
p127
F0.00068713306540433183
sS'FN'
p128
F0.0013469549250828031
sS'FO'
p129
F8.8407609649637601e-08
sS'JQ'
p130
F8.8407609649637601e-08
sS'JR'
p131
F8.8407609649637601e-08
sS'SZ'
p132
F2.6522280550119998e-07
sS'SY'
p133
F0.0021193584825451462
sS'SX'
p134
F4.2435564468659464e-06
sS'SS'
p135
F0.0093604142055514934
sS'SR'
p136
F0.004520304576216402
sS'SQ'
p137
F0.0039028196446562833
sS'SP'
p138
F0.0059507455396589993
sS'SW'
p139
F0.0011012175251173969
sS'SV'
p140
F0.0047933588670102112
sS'SU'
p141
F5.3044554065928202e-07
sS'ST'
p142
F0.0045060470350329887
sS'SK'
p143
F0.0039607635824156972
sS'SJ'
p144
F8.8407609649637601e-08
sS'SI'
p145
F0.0031561168497250538
sS'SH'
p146
F0.0022118092347216825
sS'SO'
p147
F8.8407609649637601e-08
sS'SN'
p148
F0.0026592100774827619
sS'SM'
p149
F0.0014162590844239422
sS'SL'
p150
F0.0082040757807565132
sS'SC'
p151
F0.0019377843240898243
sS'SB'
p152
F3.5363039170312741e-07
sS'SA'
p153
F0.005319545827867255
sS'SG'
p154
F0.0056811717875661005
sS'SF'
p155
F0.0030906348375354851
sS'SE'
p156
F0.0051058322582914059
sS'SD'
p157
F0.0037781143114834345
sS'YI'
p158
F0.0013395386541197743
sS'YH'
p159
F0.0007499457290410399
sS'YK'
p160
F0.0015281067492570845
sS'YJ'
p161
F8.8407609649637601e-08
sS'YM'
p162
F0.00053710879883040277
sS'YL'
p163
F0.0026868077929050717
sS'YO'
p164
F8.8407609649637601e-08
sS'YN'
p165
F0.001084438425234466
sS'YA'
p166
F0.001381298605652516
sS'YC'
p167
F0.00068386422525639888
sS'YB'
p168
F2.6522280550119998e-07
sS'YE'
p169
F0.001713197304037262
sS'YD'
p170
F0.0012529231317605592
sS'YG'
p171
F0.0016733046681772471
sS'YF'
p172
F0.0012399434010226837
sS'YY'
p173
F0.00094242297851970683
sS'YX'
p174
F8.8407609649637601e-08
sS'YZ'
p175
F8.8407609649637601e-08
sS'YQ'
p176
F0.0012517752712070741
sS'YP'
p177
F0.0013098730202446716
sS'YS'
p178
F0.0021942548351586624
sS'YR'
p179
F0.0015882185970335009
sS'YU'
p180
F1.7681521148337045e-07
sS'YT'
p181
F0.0014749652197572089
sS'YW'
p182
F0.00037778277144691005
sS'YV'
p183
F0.0015791270223237102
sS'LF'
p184
F0.0033985304230056785
sS'LG'
p185
F0.0060154253981099925
sS'LD'
p186
F0.0046328616067340374
sS'LE'
p187
F0.0070893255365679451
sS'LB'
p188
F2.6522280550119998e-07
sS'LC'
p189
F0.0022350970078214931
sS'LA'
p190
F0.0069259478800611247
sS'LN'
p191
F0.0034474289829528318
sS'LO'
p192
F8.8407609649637601e-08
sS'LL'
p193
F0.011065445351871537
sS'LM'
p194
F0.0017965960142120269
sS'LJ'
p195
F8.8407609649637601e-08
sS'LK'
p196
F0.0056189318513612824
sS'LH'
p197
F0.0027393559694998447
sS'LI'
p198
F0.0038821245674640075
sS'LV'
p199
F0.0055617872560024375
sS'LW'
p200
F0.0011696556742992715
sS'LT'
p201
F0.0051669607617267979
sS'LU'
p202
F2.6522280550119998e-07
sS'LR'
p203
F0.0059960921831187664
sS'LS'
p204
F0.0079952753367902515
sS'LP'
p205
F0.0060637568003935249
sS'LQ'
p206
F0.0057457811827000349
sS'LZ'
p207
F1.3261133240751938e-06
sS'LX'
p208
F5.7464783702049227e-06
sS'LY'
p209
F0.0025616861706012871
sS'RT'
p210
F0.0027688029014578714
sS'RU'
p211
F1.7681521148337045e-07
sS'RV'
p212
F0.0031294133975090961
sS'RW'
p213
F0.00071186988770279946
sS'RP'
p214
F0.00330997829647423
sS'RQ'
p215
F0.0025779996022391337
sS'RR'
p216
F0.0043914512657622544
sS'RS'
p217
F0.0041935622166115634
sS'RX'
p218
F2.8290396321065005e-06
sS'RY'
p219
F0.0014645484427432338
sS'RZ'
p220
F8.8407609649637601e-08
sS'RD'
p221
F0.0027230451699471751
sS'RE'
p222
F0.0039664873454235694
sS'RF'
p223
F0.0018597802471901374
sS'RG'
p224
F0.00367805698101585
sS'RA'
p225
F0.0039786392259668589
sS'RB'
p226
F4.4203797008915435e-07
sS'RC'
p227
F0.0012510688948269579
sS'RL'
p228
F0.0054047546755518049
sS'RM'
p229
F0.0010537054490488672
sS'RN'
p230
F0.0021129183693561647
sS'RO'
p231
F8.8407609649637601e-08
sS'RH'
p232
F0.0016095790589781347
sS'RI'
p233
F0.0024126484469374899
sS'RJ'
p234
F8.8407609649637601e-08
sS'RK'
p235
F0.0036412375913926088
sS'JS'
p236
F8.8407609649637601e-08
sS'VA'
p237
F0.0042697999127558764
sS'VC'
p238
F0.001475141774364666
sS'VH'
p239
F0.0015803627751964386
sS'VI'
p240
F0.0028488518547856168
sS'VJ'
p241
F8.8407609649637601e-08
sS'EM'
p242
F0.0015472617244380745
sS'EL'
p243
F0.0063189957346344409
sS'EO'
p244
F8.8407609649637601e-08
sS'EN'
p245
F0.0031003296185088658
sS'EI'
p246
F0.0030570549150473066
sS'EH'
p247
F0.0014882950049549797
sS'EK'
p248
F0.0054440590963413761
sS'EJ'
p249
F8.8407609649637601e-08
sS'EE'
p250
F0.007903445463362798
sS'ED'
p251
F0.0043527216158778491
sS'EG'
p252
F0.0041757784537852158
sS'EF'
p253
F0.0019985774002271701
sS'EA'
p254
F0.0052586904831134996
sS'EC'
p255
F0.0016367644415761155
sS'EB'
p256
F8.8407609649637601e-08
sS'EY'
p257
F0.0015371105160094478
sS'EX'
p258
F2.8290396321065005e-06
sS'EZ'
p259
F8.8407609649637601e-08
sS'EU'
p260
F8.8407609649637601e-08
sS'ET'
p261
F0.0033545637303674975
sS'EW'
p262
F0.00071293002355567528
sS'EV'
p263
F0.0041025271460361319
sS'EQ'
p264
F0.0031075565759060716
sS'EP'
p265
F0.0033299803081309593
sS'ES'
p266
F0.0042889024433003702
sS'ER'
p267
F0.0039718588470625295
sS'VP'
p268
F0.0036400043826309773
sS'VQ'
p269
F0.0026918334929685694
sS'VR'
p270
F0.0029624786271031608
sS'VS'
p271
F0.0048292560448272171
sS'VT'
p272
F0.0037610277649541509
sS'VU'
p273
F8.8407609649637601e-08
sS'VV'
p274
F0.0039257158267629487
sS'VW'
p275
F0.00070992630238686863
sS'VX'
p276
F1.2377058238480969e-06
sS'VZ'
p277
F5.3044554065928202e-07
sS'XJ'
p278
F8.8407609649637601e-08
sS'XK'
p279
F8.8407609649637601e-08
sS'XH'
p280
F8.8407574478082804e-07
sS'XI'
p281
F2.0333730445202099e-06
sS'XN'
p282
F1.4145208164864052e-06
sS'XO'
p283
F8.8407609649637601e-08
sS'XL'
p284
F5.7464783702049227e-06
sS'XM'
p285
F1.4145208164864052e-06
sS'XB'
p286
F8.8407609649637601e-08
sS'XC'
p287
F8.8407609649637601e-08
sS'XA'
p288
F8.8407609649637601e-08
sS'XF'
p289
F1.0608907999462417e-06
sS'XG'
p290
F2.1217804744043878e-06
sS'XD'
p291
F8.8407574478082804e-07
sS'XE'
p292
F4.7739997365550067e-06
sS'XZ'
p293
F8.8407609649637601e-08
sS'XX'
p294
F2.2278470449547082e-05
sS'XY'
p295
F8.8407609649637601e-08
sS'XR'
p296
F8.8407609649637601e-08
sS'XS'
p297
F3.8015201571894801e-06
sS'XP'
p298
F9.1059427372094084e-06
sS'XQ'
p299
F8.8407609649637601e-08
sS'XV'
p300
F8.8407574478082804e-07
sS'XW'
p301
F8.8407609649637601e-08
sS'XT'
p302
F2.5638175065872108e-06
sS'XU'
p303
F8.8407609649637601e-08
sS'KC'
p304
F0.0012594570821225148
sS'KB'
p305
F2.6522280550119998e-07
sS'KA'
p306
F0.0040540128095339079
sS'KG'
p307
F0.003173918755058164
sS'KF'
p308
F0.0016843370828679989
sS'KE'
p309
F0.0049860271446512333
sS'KD'
p310
F0.003035284651525339
sS'KK'
p311
F0.0045913252252579384
sS'KJ'
p312
F8.8407609649637601e-08
sS'KI'
p313
F0.0027329198479401776
sS'KH'
p314
F0.0014017806505805975
sS'KO'
p315
F8.8407609649637601e-08
sS'KN'
p316
F0.0023269196462414898
sS'KM'
p317
F0.0013195850806106773
sS'KL'
p318
F0.0050030927731651116
sS'KS'
p319
F0.0038496280288048638
sS'KR'
p320
F0.0032370160256022123
sS'KQ'
p321
F0.0025277357434244918
sS'KP'
p322
F0.003248383686009606
sS'KW'
p323
F0.00060337670941418016
sS'KV'
p324
F0.0033641678422667528
sS'KU'
p325
F8.8407609649637601e-08
sS'KT'
p326
F0.0030693941252234332
sS'KZ'
p327
F8.8407609649637601e-08
sS'KY'
p328
F0.0015257233856645952
sS'KX'
p329
F1.7681507079724246e-06
sS'DN'
p330
F0.0016371174936316993
sS'DO'
p331
F8.8407609649637601e-08
sS'DL'
p332
F0.0048637442764254456
sS'DM'
p333
F0.0010027466801133802
sS'DJ'
p334
F8.8407609649637601e-08
sS'DK'
p335
F0.0024031233875645478
sS'DH'
p336
F0.0011213520733535669
sS'DI'
p337
F0.002505953953308816
sS'DF'
p338
F0.0020811583004412037
sS'DG'
p339
F0.0032393953140548524
sS'DD'
p340
F0.0025127442788586544
sS'DE'
p341
F0.0033180848868591007
sS'DB'
p342
F8.8407609649637601e-08
sS'DC'
p343
F0.0010691603683521966
sS'DA'
p344
F0.0028179085808128545
sS'DZ'
p345
F8.8407609649637601e-08
sS'DX'
p346
F8.8407609649637601e-08
sS'DY'
p347
F0.0014088433274234338
sS'DV'
p348
F0.0030238264277244204
sS'DW'
p349
F0.00062219599536596638
sS'DT'
p350
F0.0024255247718652007
sS'DU'
p351
F8.8407609649637601e-08
sS'DR'
p352
F0.002392451685500729
sS'DS'
p353
F0.0041146773735624993
sS'DP'
p354
F0.002879882324681983
sS'DQ'
p355
F0.0017739157837075479
sS'QQ'
p356
F0.0030195075246834788
sS'QP'
p357
F0.0028618988742162513
sS'QS'
p358
F0.00310226856342494
sS'QR'
p359
F0.0030349320927507066
sS'QU'
p360
F1.7681521148337045e-07
sS'QT'
p361
F0.0022727620686702351
sS'QW'
p362
F0.00054417758519050214
sS'QV'
p363
F0.0027768257176418389
sS'QY'
p364
F0.0011082823250520063
sS'QX'
p365
F8.8407609649637601e-08
sS'QZ'
p366
F1.7681521148337045e-07
sS'QA'
p367
F0.0035381713258590508
sS'QC'
p368
F0.00099055858279710127
sS'QB'
p369
F8.8407609649637601e-08
sS'QE'
p370
F0.0039409503036348633
sS'QD'
p371
F0.0023080442111467147
sS'QG'
p372
F0.0028968957815775002
sS'QF'
p373
F0.0013498684450559337
sS'QI'
p374
F0.0019388431611038371
sS'QH'
p375
F0.0013262951763116765
sS'QK'
p376
F0.0029276603132483313
sS'QJ'
p377
F8.8407609649637601e-08
sS'QM'
p378
F0.0010011569367138619
sS'QL'
p379
F0.0047207687244293344
sS'QO'
p380
F8.8407609649637601e-08
sS'QN'
p381
F0.0018242175457535788
sS'WG'
p382
F0.00075356771731914139
sS'WF'
p383
F0.00044971680002036144
sS'WE'
p384
F0.00083996150041264715
sS'WD'
p385
F0.00065356068493917306
sS'WC'
p386
F0.00024538942478809401
sS'WB'
p387
F8.8407609649637601e-08
sS'WA'
p388
F0.00084031483389320275
sS'WO'
p389
F8.8407609649637601e-08
sS'WN'
p390
F0.00053436963068307416
sS'WM'
p391
F0.00028966979128297566
sS'WL'
p392
F0.0012315550500404315
sS'WK'
p393
F0.00081602286634908016
sS'WJ'
p394
F8.8407609649637601e-08
sS'WI'
p395
F0.00055398544350290183
sS'WH'
p396
F0.00030248510036299641
sS'WW'
p397
F0.00019615725439206056
sS'WV'
p398
F0.00071849571834456047
sS'WU'
p399
F8.8407609649637601e-08
sS'WT'
p400
F0.00067414598873812275
sS'WS'
p401
F0.00088536382998394357
sS'WR'
p402
F0.00075021075301842178
sS'WQ'
p403
F0.00054833047387581693
sS'WP'
p404
F0.00054788867802693967
sS'JD'
p405
F8.8407609649637601e-08
sS'JE'
p406
F8.8407609649637601e-08
sS'JF'
p407
F8.8407609649637601e-08
sS'JG'
p408
F8.8407609649637601e-08
sS'WZ'
p409
F8.8407609649637601e-08
sS'WY'
p410
F0.00033854384748982643
sS'WX'
p411
F8.8407609649637601e-08
sS'PR'
p412
F0.0034914796923746047
sS'PS'
p413
F0.0056902261447843768
sS'PP'
p414
F0.0062122514036783722
sS'PQ'
p415
F0.0028830558411930426
sS'PV'
p416
F0.0037611158406848349
sS'PW'
p417
F0.00072927364239987831
sS'PT'
p418
F0.0031225391260826922
sS'PU'
p419
F8.8407609649637601e-08
sS'PZ'
p420
F7.072606583518451e-07
sS'PX'
p421
F2.1217804744043878e-06
sS'PY'
p422
F0.001666420379738597
sS'PB'
p423
F1.7681521148337045e-07
sS'PC'
p424
F0.0012092152036696547
sS'PA'
p425
F0.0050424129839036352
sS'PF'
p426
F0.0019552549914574092
sS'PG'
p427
F0.0055167725985365967
sS'PD'
p428
F0.0027777073418687316
sS'PE'
p429
F0.0045588517253690721
sS'PJ'
p430
F8.8407609649637601e-08
sS'PK'
p431
F0.0027997476949349212
sS'PH'
p432
F0.0014475105989993583
sS'PI'
p433
F0.0018725754507361893
sS'PN'
p434
F0.0017708269965652659
sS'PO'
p435
F8.8407609649637601e-08
sS'PL'
p436
F0.0053439045161486984
sS'PM'
p437
F0.00096406220657244525
sS'CK'
p438
F0.0012168973415291884
sS'CJ'
p439
F8.8407609649637601e-08
sS'CI'
p440
F0.00093173567682259834
sS'CH'
p441
F0.00069411244509211246
sS'CO'
p442
F8.8407609649637601e-08
sS'CN'
p443
F0.00085029645313894288
sS'CM'
p444
F0.00037062443392569779
sS'CL'
p445
F0.0022166608988402792
sS'CC'
p446
F0.00075003407037463798
sS'CB'
p447
F8.8407609649637601e-08
sS'CA'
p448
F0.0012880646864495116
sS'CG'
p449
F0.0020192232646274542
sS'CF'
p450
F0.00085921799309749748
sS'CE'
p451
F0.001357108063994208
sS'CD'
p452
F0.001038338606755376
sS'CZ'
p453
F8.8407609649637601e-08
sS'CY'
p454
F0.00060797112176057592
sS'CX'
p455
F8.8407574478082804e-07
sS'CS'
p456
F0.002047985595927556
sS'CR'
p457
F0.0013454540175414002
sS'CQ'
p458
F0.0011381305538753364
sS'CP'
p459
F0.001442920042233673
sS'CW'
p460
F0.00030796469963814747
sS'CV'
p461
F0.0013123451900142217
sS'CU'
p462
F3.5363039170312741e-07
sS'CT'
p463
F0.0011151704569332664
sS'IY'
p464
F0.0013752951681548153
sS'IX'
p465
F1.8565581613042296e-06
sS'VB'
p466
F8.8407609649637601e-08
sS'IZ'
p467
F1.7681521148337045e-07
sS'VD'
p468
F0.0028631330429172396
sS'VE'
p469
F0.0037500182375291968
sS'VF'
p470
F0.0024040053413178913
sS'VG'
p471
F0.0033674279326761122
sS'IQ'
p472
F0.0022454175520159412
sS'IP'
p473
F0.0025822322329116919
sS'IS'
p474
F0.0036643159319658136
sS'IR'
p475
F0.0022991355876476214
sS'IU'
p476
F8.8407609649637601e-08
sS'IT'
p477
F0.0025448433754746646
sS'IW'
p478
F0.00051987842273725578
sS'IV'
p479
F0.0024331093788172351
sS'II'
p480
F0.0023673154082905425
sS'IH'
p481
F0.0014865294807002072
sS'IK'
p482
F0.0025108041905493616
sS'IJ'
p483
F8.8407609649637601e-08
sS'IM'
p484
F0.00090020305493149688
sS'IL'
p485
F0.0045587637198715447
sS'IO'
p486
F8.8407609649637601e-08
sS'IN'
p487
F0.0017627961053450123
sS'IA'
p488
F0.0024943132879494175
sS'VY'
p489
F0.0015993402168004412
sS'IC'
p490
F0.0011108433027025766
sS'IB'
p491
F8.8407609649637601e-08
sS'IE'
p492
F0.0024423695767535913
sS'ID'
p493
F0.0019242840538856818
sS'IG'
p494
F0.0021314446104097333
sS'IF'
p495
F0.0019021361570239143
sS'BD'
p496
F8.8407609649637601e-08
sS'BE'
p497
F8.8407609649637601e-08
sS'BF'
p498
F8.8407574478082804e-07
sS'BG'
p499
F5.3044554065928202e-07
sS'BA'
p500
F8.8407609649637601e-08
sS'BB'
p501
F7.9566820547428342e-07
sS'BC'
p502
F8.8407609649637601e-08
sS'BL'
p503
F3.5363039170312741e-07
sS'BM'
p504
F8.8407609649637601e-08
sS'BN'
p505
F8.8407609649637601e-08
sS'BO'
p506
F8.8407609649637601e-08
sS'BH'
p507
F8.8407609649637601e-08
sS'BI'
p508
F1.7681521148337045e-07
sS'BJ'
p509
F8.8407609649637601e-08
sS'BK'
p510
F1.7681521148337045e-07
sS'BT'
p511
F1.2377058238480969e-06
sS'BU'
p512
F8.8407609649637601e-08
sS'BV'
p513
F8.8407609649637601e-08
sS'BW'
p514
F2.6522280550119998e-07
sS'BP'
p515
F8.8407609649637601e-08
sS'BQ'
p516
F8.8407609649637601e-08
sS'BR'
p517
F8.8407609649637601e-08
sS'BS'
p518
F6.1885310341351179e-07
sS'BX'
p519
F8.8407609649637601e-08
sS'BY'
p520
F4.4203797008915435e-07
sS'BZ'
p521
F8.8407609649637601e-08
sS'OO'
p522
F8.8407609649637601e-08
sS'ON'
p523
F8.8407609649637601e-08
sS'OM'
p524
F8.8407609649637601e-08
sS'OL'
p525
F8.8407609649637601e-08
sS'OK'
p526
F8.8407609649637601e-08
sS'OJ'
p527
F8.8407609649637601e-08
sS'OI'
p528
F8.8407609649637601e-08
sS'OH'
p529
F8.8407609649637601e-08
sS'OG'
p530
F8.8407609649637601e-08
sS'OF'
p531
F8.8407609649637601e-08
sS'OE'
p532
F8.8407609649637601e-08
sS'OD'
p533
F8.8407609649637601e-08
sS'OC'
p534
F8.8407609649637601e-08
sS'OB'
p535
F8.8407609649637601e-08
sS'OA'
p536
F8.8407609649637601e-08
sS'OZ'
p537
F8.8407609649637601e-08
sS'OY'
p538
F8.8407609649637601e-08
sS'OX'
p539
F8.8407609649637601e-08
sS'OW'
p540
F8.8407609649637601e-08
sS'OV'
p541
F8.8407609649637601e-08
sS'OU'
p542
F8.8407609649637601e-08
sS'OT'
p543
F8.8407609649637601e-08
sS'OS'
p544
F8.8407609649637601e-08
sS'OR'
p545
F8.8407609649637601e-08
sS'OQ'
p546
F8.8407609649637601e-08
sS'OP'
p547
F8.8407609649637601e-08
sS'HZ'
p548
F8.8407609649637601e-08
sS'HX'
p549
F1.9449656068201578e-06
sS'HY'
p550
F0.00080665925947350956
sS'HR'
p551
F0.0016252019178689514
sS'HS'
p552
F0.0023532917369504859
sS'HP'
p553
F0.0016801006500221168
sS'HQ'
p554
F0.0014193489669435215
sS'HV'
p555
F0.0014755831607469339
sS'HW'
p556
F0.00035913563696080551
sS'HT'
p557
F0.0017129325351515953
sS'HU'
p558
F8.8407609649637601e-08
sS'HJ'
p559
F8.8407609649637601e-08
sS'HK'
p560
F0.0013047520777086992
sS'HH'
p561
F0.00093491538182546938
sS'HI'
p562
F0.0012163675408128447
sS'HN'
p563
F0.00085656803904328265
sS'HO'
p564
F8.8407609649637601e-08
sS'HL'
p565
F0.0029956210097790746
sS'HM'
p566
F0.00054364742794674713
sS'HB'
p567
F8.8407609649637601e-08
sS'HC'
p568
F0.00074155326676190623
sS'HA'
p569
F0.0013213508996341816
sS'HF'
p570
F0.0011045733113096646
sS'HG'
p571
F0.0015839817569676753
sS'HD'
p572
F0.00085859967111294889
sS'HE'
p573
F0.0013352124706580697
sS'UY'
p574
F8.8407609649637601e-08
sS'UX'
p575
F8.8407609649637601e-08
sS'UZ'
p576
F8.8407609649637601e-08
sS'UU'
p577
F8.8407609649637601e-08
sS'UT'
p578
F8.8407609649637601e-08
sS'UW'
p579
F8.8407609649637601e-08
sS'UV'
p580
F8.8407609649637601e-08
sS'UQ'
p581
F3.5363039170312741e-07
sS'UP'
p582
F3.5363039170312741e-07
sS'US'
p583
F2.6522280550119998e-07
sS'UR'
p584
F2.6522280550119998e-07
sS'UM'
p585
F8.8407609649637601e-08
sS'UL'
p586
F8.8407609649637601e-08
sS'UO'
p587
F8.8407609649637601e-08
sS'UN'
p588
F8.8407609649637601e-08
sS'UI'
p589
F8.8407609649637601e-08
sS'UH'
p590
F8.8407609649637601e-08
sS'UK'
p591
F2.6522280550119998e-07
sS'UJ'
p592
F8.8407609649637601e-08
sS'UE'
p593
F8.8407609649637601e-08
sS'UD'
p594
F8.8407609649637601e-08
sS'UG'
p595
F1.2377058238480969e-06
sS'UF'
p596
F8.8407609649637601e-08
sS'UA'
p597
F8.8407609649637601e-08
sS'UC'
p598
F8.8407609649637601e-08
sS'UB'
p599
F8.8407609649637601e-08
sS'NH'
p600
F0.00094401281529381525
sS'NI'
p601
F0.002067748190700428
sS'NJ'
p602
F8.8407609649637601e-08
sS'NK'
p603
F0.0021473239724267034
sS'NL'
p604
F0.0037282630549396014
sS'NM'
p605
F0.00081275444749484094
sS'NN'
p606
F0.0014839694649940679
sS'NO'
p607
F8.8407609649637601e-08
sS'NA'
p608
F0.0019951363813856034
sS'NB'
p609
F8.8407609649637601e-08
sS'NC'
p610
F0.00084049150058666388
sS'ND'
p611
F0.0014731113944969234
sS'NE'
p612
F0.0021846394806548028
sS'NF'
p613
F0.00145677992823236
sS'NG'
p614
F0.002379663132190654
sS'NX'
p615
F2.2985953107251263e-06
sS'NY'
p616
F0.0011073109180205823
sS'NZ'
p617
F8.8407609649637601e-08
sS'NP'
p618
F0.0021624973494314245
sS'NQ'
p619
F0.0016342930736969415
sS'NR'
p620
F0.001799949467677833
sS'NS'
p621
F0.0030723907675738182
sS'NT'
p622
F0.0019081364325071685
sS'NU'
p623
F8.8407609649637601e-08
sS'NV'
p624
F0.0021387667920017223
sS'NW'
p625
F0.0004506004782709896
sS'VN'
p626
F0.0021744065247674867
sS'TZ'
p627
F3.5363039170312741e-07
sS'TX'
p628
F5.6580712607704023e-06
sS'TY'
p629
F0.0014029283389618374
sS'TV'
p630
F0.0038115819587083168
sS'TW'
p631
F0.00070824774839222553
sS'TT'
p632
F0.003177003211394316
sS'TU'
p633
F4.4203797008915435e-07
sS'TR'
p634
F0.0024554219006097996
sS'TS'
p635
F0.0046308376281315395
sS'TP'
p636
F0.0036421184538626703
sS'TQ'
p637
F0.0023188050168700858
sS'TN'
p638
F0.0016957224072115206
sS'TO'
p639
F8.8407609649637601e-08
sS'TL'
p640
F0.0053511152775594087
sS'TM'
p641
F0.0010015985323561256
sS'TJ'
p642
F8.8407609649637601e-08
sS'TK'
p643
F0.0025742960357045563
sS'TH'
p644
F0.0014123746471394133
sS'TI'
p645
F0.0023637874591720324
sS'TF'
p646
F0.0021468828824421854
sS'TG'
p647
F0.0037372470338628951
sS'TD'
p648
F0.0023599948999879295
sS'TE'
p649
F0.0034601157862195367
sS'TB'
p650
F3.5363039170312741e-07
sS'TC'
p651
F0.0013618755893069073
sS'TA'
p652
F0.00376763342322894
sS'AA'
p653
F0.0071034585125098609
sS'AC'
p654
F0.0014443325234829846
sS'AB'
p655
F1.7681521148337045e-07
sS'AE'
p656
F0.0047351111945469768
sS'AD'
p657
F0.0028411822436494091
sS'AG'
p658
F0.0049155623678394907
sS'AF'
p659
F0.0027767375551764001
sS'AI'
p660
F0.0027281588546523754
sS'AH'
p661
F0.0015868945864412395
sS'AK'
p662
F0.0033038101945489702
sS'AJ'
p663
F8.8407609649637601e-08
sS'AM'
p664
F0.0013765311729388603
sS'AL'
p665
F0.0072551340269130472
sS'AO'
p666
F8.8407609649637601e-08
sS'AN'
p667
F0.0019593137896790256
sS'AQ'
p668
F0.0032376328787075896
sS'AP'
p669
F0.0044193532884714698
sS'AS'
p670
F0.0057599331595490442
sS'AR'
p671
F0.0037097663735960245
sS'AU'
p672
F1.7681521148337045e-07
sS'AT'
p673
F0.0036351596192014269
sS'AW'
p674
F0.00083695816078731505
sS'AV'
p675
F0.0047332634031921851
sS'AY'
p676
F0.0015355216218850543
sS'AX'
p677
F8.8407609649637601e-08
sS'AZ'
p678
F5.3044554065928202e-07
sS'VK'
p679
F0.0032322574317138241
s.