ccollections
defaultdict
p1
(c__builtin__
float
p2
tRp3
S'JX'
p4
F4.7741357567037407e-08
sS'VL'
p5
F0.0008851148915092063
sS'JY'
p6
F4.7741357567037407e-08
sS'JZ'
p7
F4.7741357567037407e-08
sS'JW'
p8
F4.7741357567037407e-08
sS'JT'
p9
F4.7741357567037407e-08
sS'JU'
p10
F4.7741357567037407e-08
sS'VM'
p11
F0.00013524212358767353
sS'JV'
p12
F4.7741357567037407e-08
sS'GW'
p13
F0.0012141846757288499
sS'GV'
p14
F0.0050434522046285358
sS'GU'
p15
F4.7741357567037407e-08
sS'GT'
p16
F0.013444323572582857
sS'GS'
p17
F0.0092608218942665278
sS'GR'
p18
F0.0081786455893941446
sS'GQ'
p19
F0.0081561055494509122
sS'GP'
p20
F0.0050305317992183343
sS'JP'
p21
F4.7741357567037407e-08
sS'GZ'
p22
F4.7741357567037407e-08
sS'GY'
p23
F0.0041383351667084109
sS'GX'
p24
F4.7741357567037407e-08
sS'GG'
p25
F0.022383226452304401
sS'GF'
p26
F0.0018818634914064462
sS'GE'
p27
F0.013007010458427492
sS'GD'
p28
F0.0051805312247709418
sS'GC'
p29
F6.506935486078294e-05
sS'GB'
p30
F4.7741357567037407e-08
sS'GA'
p31
F0.010682491303402143
sS'GO'
p32
F4.7741357567037407e-08
sS'GN'
p33
F0.0079631211771999683
sS'GM'
p34
F0.00073270458664615639
sS'GL'
p35
F0.0074207185724598371
sS'GK'
p36
F0.0014562918080296831
sS'GJ'
p37
F4.7741357567037407e-08
sS'GI'
p38
F0.0020816943362623988
sS'GH'
p39
F0.0013518849319554295
sS'JL'
p40
F4.7741357567037407e-08
sS'JM'
p41
F4.7741357567037407e-08
sS'JN'
p42
F4.7741357567037407e-08
sS'JO'
p43
F4.7741357567037407e-08
sS'VO'
p44
F4.7741357567037407e-08
sS'JH'
p45
F4.7741357567037407e-08
sS'JI'
p46
F4.7741357567037407e-08
sS'JJ'
p47
F4.7741357567037407e-08
sS'JK'
p48
F4.7741357567037407e-08
sS'JA'
p49
F4.7741357567037407e-08
sS'JB'
p50
F4.7741357567037407e-08
sS'JC'
p51
F4.7741357567037407e-08
sS'ZL'
p52
F4.7741357567037407e-08
sS'ZM'
p53
F4.7741357567037407e-08
sS'ZN'
p54
F4.7741357567037407e-08
sS'ZO'
p55
F4.7741357567037407e-08
sS'ZH'
p56
F4.7741357567037407e-08
sS'ZI'
p57
F4.7741357567037407e-08
sS'ZJ'
p58
F4.7741357567037407e-08
sS'ZK'
p59
F4.7741357567037407e-08
sS'ZD'
p60
F4.7741357567037407e-08
sS'ZE'
p61
F4.7741357567037407e-08
sS'ZF'
p62
F4.7741357567037407e-08
sS'ZG'
p63
F4.7741357567037407e-08
sS'ZA'
p64
F4.7741357567037407e-08
sS'ZB'
p65
F4.7741357567037407e-08
sS'ZC'
p66
F4.7741357567037407e-08
sS'ZX'
p67
F4.7741357567037407e-08
sS'ZY'
p68
F4.7741357567037407e-08
sS'ZZ'
p69
F4.7741357567037407e-08
sS'ZT'
p70
F4.7741357567037407e-08
sS'ZU'
p71
F4.7741357567037407e-08
sS'ZV'
p72
F4.7741357567037407e-08
sS'ZW'
p73
F4.7741357567037407e-08
sS'ZP'
p74
F4.7741357567037407e-08
sS'ZQ'
p75
F4.7741357567037407e-08
sS'ZR'
p76
F4.7741357567037407e-08
sS'ZS'
p77
F4.7741357567037407e-08
sS'ME'
p78
F0.00016770133048226227
sS'MD'
p79
F0.0002443104276376077
sS'MG'
p80
F0.00099634305516724665
sS'MF'
p81
F2.644836296245222e-05
sS'MA'
p82
F0.00024211485919204922
sS'MC'
p83
F2.4348063298961201e-06
sS'MB'
p84
F4.7741357567037407e-08
sS'MM'
p85
F2.2772368810716076e-05
sS'ML'
p86
F8.7553818920541154e-05
sS'MO'
p87
F4.7741357567037407e-08
sS'MN'
p88
F0.00098780582572850989
sS'MI'
p89
F4.2823081838612974e-05
sS'MH'
p90
F1.6613854819066031e-05
sS'MK'
p91
F4.1868295096437879e-05
sS'MJ'
p92
F4.7741357567037407e-08
sS'MU'
p93
F4.7741357567037407e-08
sS'MT'
p94
F0.00032053184789338922
sS'MW'
p95
F4.2632124563107361e-05
sS'MV'
p96
F0.0001292275077848443
sS'MQ'
p97
F6.2634701029291797e-05
sS'MP'
p98
F8.1109278996104701e-05
sS'MS'
p99
F0.00022483652188315473
sS'MR'
p100
F0.00021171051361162409
sS'MY'
p101
F7.2707446059819934e-05
sS'MX'
p102
F4.7741357567037407e-08
sS'MZ'
p103
F4.7741357567037407e-08
sS'FP'
p104
F0.00060369818385657683
sS'FQ'
p105
F0.00052210640162109981
sS'FR'
p106
F0.0010085049041957828
sS'FS'
p107
F0.0013959850564083604
sS'FT'
p108
F0.00085468238936561153
sS'FU'
p109
F4.7741357567037407e-08
sS'FV'
p110
F0.00026774543397770626
sS'FW'
p111
F0.00017290425243369527
sS'FX'
p112
F4.7741357567037407e-08
sS'FY'
p113
F0.00076538293067946687
sS'FZ'
p114
F4.7741357567037407e-08
sS'FA'
p115
F0.00047386391799706908
sS'FB'
p116
F4.7741357567037407e-08
sS'FC'
p117
F7.113437146737738e-06
sS'FD'
p118
F0.00045224709461037473
sS'FE'
p119
F0.00052969328666443917
sS'FF'
p120
F0.00018073245097002444
sS'FG'
p121
F0.0020930807283567449
sS'FH'
p122
F0.0001260292449666398
sS'FI'
p123
F0.00015214013630063201
sS'FJ'
p124
F4.7741357567037407e-08
sS'FK'
p125
F0.00013543306317944661
sS'FL'
p126
F0.00060875570094682055
sS'FM'
p127
F9.4762106962425867e-05
sS'FN'
p128
F0.00064749734191780247
sS'FO'
p129
F4.7741357567037407e-08
sS'JQ'
p130
F4.7741357567037407e-08
sS'JR'
p131
F4.7741357567037407e-08
sS'SZ'
p132
F4.7741357567037407e-08
sS'SY'
p133
F0.012635224028855427
sS'SX'
p134
F4.7741357567037407e-08
sS'SS'
p135
F0.073002134846520961
sS'SR'
p136
F0.01315303833436708
sS'SQ'
p137
F0.0060393884240704607
sS'SP'
p138
F0.013863177072052413
sS'SW'
p139
F0.0013496917939219907
sS'SV'
p140
F0.0036574050720376205
sS'SU'
p141
F4.7741357567037407e-08
sS'ST'
p142
F0.0084011775370224102
sS'SK'
p143
F0.002418181365347325
sS'SJ'
p144
F4.7741357567037407e-08
sS'SI'
p145
F0.0051179787845392431
sS'SH'
p146
F0.0015364727022717096
sS'SO'
p147
F4.7741357567037407e-08
sS'SN'
p148
F0.0048907717454354733
sS'SM'
p149
F0.0010569123666519542
sS'SL'
p150
F0.019085220861635967
sS'SC'
p151
F0.00017610236533705971
sS'SB'
p152
F4.7741357567037407e-08
sS'SA'
p153
F0.0094260316013581799
sS'SG'
p154
F0.018714422673656795
sS'SF'
p155
F0.0050851098749623586
sS'SE'
p156
F0.0076184507934983206
sS'SD'
p157
F0.004246539905202169
sS'YI'
p158
F0.00011218589988724576
sS'YH'
p159
F9.2709420957149018e-05
sS'YK'
p160
F0.00012273550092506156
sS'YJ'
p161
F4.7741357567037407e-08
sS'YM'
p162
F6.3493991293724119e-05
sS'YL'
p163
F0.00048345533897212488
sS'YO'
p164
F4.7741357567037407e-08
sS'YN'
p165
F0.0066812810744232938
sS'YA'
p166
F0.00039770190685558393
sS'YC'
p167
F5.347017879819894e-06
sS'YB'
p168
F4.7741357567037407e-08
sS'YE'
p169
F0.011595062246600949
sS'YD'
p170
F0.00033690175198258218
sS'YG'
p171
F0.007428821955131679
sS'YF'
p172
F0.00014779632414100135
sS'YY'
p173
F0.00071519618780237974
sS'YX'
p174
F4.7741357567037407e-08
sS'YZ'
p175
F4.7741357567037407e-08
sS'YQ'
p176
F0.00071662740357246956
sS'YP'
p177
F0.00050707561032910372
sS'YS'
p178
F0.0029810580944484829
sS'YR'
p179
F0.0010616814479728596
sS'YU'
p180
F4.7741357567037407e-08
sS'YT'
p181
F0.0012544286783646374
sS'YW'
p182
F0.00011762778943351349
sS'YV'
p183
F0.00023977609619768407
sS'LF'
p184
F0.00059506217573438141
sS'LG'
p185
F0.0080379987995649656
sS'LD'
p186
F0.0023333081409840179
sS'LE'
p187
F0.0022714823687530463
sS'LB'
p188
F4.7741357567037407e-08
sS'LC'
p189
F2.1913043553862507e-05
sS'LA'
p190
F0.0076438930065230778
sS'LN'
p191
F0.0023283069686854054
sS'LO'
p192
F4.7741357567037407e-08
sS'LL'
p193
F0.0017212170432739256
sS'LM'
p194
F0.00040333313132718239
sS'LJ'
p195
F4.7741357567037407e-08
sS'LK'
p196
F0.00054329227617861114
sS'LH'
p197
F0.00030315941168749708
sS'LI'
p198
F0.00068571268720608934
sS'LV'
p199
F0.0018250135161170622
sS'LW'
p200
F0.00046102749423886753
sS'LT'
p201
F0.0024959993046504074
sS'LU'
p202
F4.7741357567037407e-08
sS'LR'
p203
F0.0026500457246412469
sS'LS'
p204
F0.0032865986027396208
sS'LP'
p205
F0.0014076176299408971
sS'LQ'
p206
F0.0014211093387735299
sS'LZ'
p207
F4.7741357567037407e-08
sS'LX'
p208
F4.7741357567037407e-08
sS'LY'
p209
F0.0013729102068396229
sS'RT'
p210
F0.0048446875000060013
sS'RU'
p211
F4.7741357567037407e-08
sS'RV'
p212
F0.0023887956601762773
sS'RW'
p213
F0.00043492466708885133
sS'RP'
p214
F0.0023876049732058572
sS'RQ'
p215
F0.0025979059300787958
sS'RR'
p216
F0.0028393926898077635
sS'RS'
p217
F0.0033901851502371873
sS'RX'
p218
F4.7741357567037407e-08
sS'RY'
p219
F0.0010904385262757159
sS'RZ'
p220
F4.7741357567037407e-08
sS'RD'
p221
F0.0051547412849690735
sS'RE'
p222
F0.0036269616850334156
sS'RF'
p223
F0.00050235160069087459
sS'RG'
p224
F0.01187628101093601
sS'RA'
p225
F0.0036770025120798321
sS'RB'
p226
F4.7741357567037407e-08
sS'RC'
p227
F1.7520925153037216e-05
sS'RL'
p228
F0.0023735071317089892
sS'RM'
p229
F0.00028721850415411185
sS'RN'
p230
F0.0021556321096562266
sS'RO'
p231
F4.7741357567037407e-08
sS'RH'
p232
F0.00037999674875318978
sS'RI'
p233
F0.00069678102882465062
sS'RJ'
p234
F4.7741357567037407e-08
sS'RK'
p235
F0.00063418603601241735
sS'JS'
p236
F4.7741357567037407e-08
sS'VA'
p237
F0.0014999106305357596
sS'VC'
p238
F1.3081046728358942e-05
sS'VH'
p239
F0.00023113694465586276
sS'VI'
p240
F0.0002543813428702981
sS'VJ'
p241
F4.7741357567037407e-08
sS'EM'
p242
F0.00015209240220361039
sS'EL'
p243
F0.00082152994198332011
sS'EO'
p244
F4.7741357567037407e-08
sS'EN'
p245
F0.0010919645836093084
sS'EI'
p246
F0.00034950114580873092
sS'EH'
p247
F0.00014579148139561485
sS'EK'
p248
F0.0047285647878172197
sS'EJ'
p249
F4.7741357567037407e-08
sS'EE'
p250
F0.0012564312997006039
sS'ED'
p251
F0.00089718269625904527
sS'EG'
p252
F0.0044870585863209861
sS'EF'
p253
F0.00030282532341808317
sS'EA'
p254
F0.001637380897563737
sS'EC'
p255
F7.4953652266248758e-06
sS'EB'
p256
F4.7741357567037407e-08
sS'EY'
p257
F0.00060116941571949293
sS'EX'
p258
F4.7741357567037407e-08
sS'EZ'
p259
F4.7741357567037407e-08
sS'EU'
p260
F4.7741357567037407e-08
sS'ET'
p261
F0.0090372037647875724
sS'EW'
p262
F0.00030984115363673885
sS'EV'
p263
F0.00087810309616688433
sS'EQ'
p264
F0.00066834659397788066
sS'EP'
p265
F0.00074224581936968017
sS'ES'
p266
F0.0016899520824991343
sS'ER'
p267
F0.0013438751871472866
sS'VP'
p268
F0.0008338847235117051
sS'VQ'
p269
F0.0007917156513810304
sS'VR'
p270
F0.0013245180389905031
sS'VS'
p271
F0.0019672515137869138
sS'VT'
p272
F0.0015343276371929367
sS'VU'
p273
F4.7741357567037407e-08
sS'VV'
p274
F0.00065312715991486649
sS'VW'
p275
F0.00022865496466587055
sS'VX'
p276
F4.7741357567037407e-08
sS'VZ'
p277
F4.7741357567037407e-08
sS'XJ'
p278
F4.7741357567037407e-08
sS'XK'
p279
F4.7741357567037407e-08
sS'XH'
p280
F4.7741357567037407e-08
sS'XI'
p281
F4.7741357567037407e-08
sS'XN'
p282
F4.7741357567037407e-08
sS'XO'
p283
F4.7741357567037407e-08
sS'XL'
p284
F4.7741357567037407e-08
sS'XM'
p285
F4.7741357567037407e-08
sS'XB'
p286
F4.7741357567037407e-08
sS'XC'
p287
F4.7741357567037407e-08
sS'XA'
p288
F4.7741357567037407e-08
sS'XF'
p289
F4.7741357567037407e-08
sS'XG'
p290
F4.7741357567037407e-08
sS'XD'
p291
F4.7741357567037407e-08
sS'XE'
p292
F4.7741357567037407e-08
sS'XZ'
p293
F4.7741357567037407e-08
sS'XX'
p294
F4.7741357567037407e-08
sS'XY'
p295
F4.7741357567037407e-08
sS'XR'
p296
F4.7741357567037407e-08
sS'XS'
p297
F4.7741357567037407e-08
sS'XP'
p298
F4.7741357567037407e-08
sS'XQ'
p299
F4.7741357567037407e-08
sS'XV'
p300
F4.7741357567037407e-08
sS'XW'
p301
F4.7741357567037407e-08
sS'XT'
p302
F4.7741357567037407e-08
sS'XU'
p303
F4.7741357567037407e-08
sS'KC'
p304
F2.4825475712223422e-06
sS'KB'
p305
F4.7741357567037407e-08
sS'KA'
p306
F0.00041321155866731361
sS'KG'
p307
F0.0016944321826093619
sS'KF'
p308
F7.2134591243571691e-05
sS'KE'
p309
F0.00065847068666161611
sS'KD'
p310
F0.00054081107083195584
sS'KK'
p311
F0.00013438289497352764
sS'KJ'
p312
F4.7741357567037407e-08
sS'KI'
p313
F0.00011127891541703956
sS'KH'
p314
F5.0031692318584157e-05
sS'KO'
p315
F4.7741357567037407e-08
sS'KN'
p316
F0.0011165719365737478
sS'KM'
p317
F4.7978914493663379e-05
sS'KL'
p318
F0.00028693213822226496
sS'KS'
p319
F0.00044494594273433399
sS'KR'
p320
F0.00051466260940975328
sS'KQ'
p321
F0.00033561316866611364
sS'KP'
p322
F0.00031895688672155096
sS'KW'
p323
F7.1370784311431803e-05
sS'KV'
p324
F0.00023132786593839749
sS'KU'
p325
F4.7741357567037407e-08
sS'KT'
p326
F0.00082238858038411952
sS'KZ'
p327
F4.7741357567037407e-08
sS'KY'
p328
F0.00018445559706284465
sS'KX'
p329
F4.7741357567037407e-08
sS'DN'
p330
F0.0012976748711031607
sS'DO'
p331
F4.7741357567037407e-08
sS'DL'
p332
F0.0012343545619606469
sS'DM'
p333
F0.00012684074545610591
sS'DJ'
p334
F4.7741357567037407e-08
sS'DK'
p335
F0.00025757919521175997
sS'DH'
p336
F0.00023929879695535364
sS'DI'
p337
F0.00043478150528062319
sS'DF'
p338
F0.00038042625764627883
sS'DG'
p339
F0.002923318536254303
sS'DD'
p340
F0.0003185273514260034
sS'DE'
p341
F0.0022707202398526607
sS'DB'
p342
F4.7741357567037407e-08
sS'DC'
p343
F8.3069619120545084e-06
sS'DA'
p344
F0.00061161843513279262
sS'DZ'
p345
F4.7741357567037407e-08
sS'DX'
p346
F4.7741357567037407e-08
sS'DY'
p347
F0.0015482943117067498
sS'DV'
p348
F0.00038658253150857051
sS'DW'
p349
F0.00032392039230810609
sS'DT'
p350
F0.011226574291697114
sS'DU'
p351
F4.7741357567037407e-08
sS'DR'
p352
F0.005385117345342077
sS'DS'
p353
F0.0030799644463492858
sS'DP'
p354
F0.0014175814890217866
sS'DQ'
p355
F0.0010153250136270883
sS'QQ'
p356
F0.00048813171981792564
sS'QP'
p357
F0.0062972671116316246
sS'QS'
p358
F0.0010185681262693117
sS'QR'
p359
F0.00091096748080963944
sS'QU'
p360
F4.7741357567037407e-08
sS'QT'
p361
F0.0012097024235401684
sS'QW'
p362
F0.00012512227305205137
sS'QV'
p363
F0.0010140373042196052
sS'QY'
p364
F0.00034429914259841507
sS'QX'
p365
F4.7741357567037407e-08
sS'QZ'
p366
F4.7741357567037407e-08
sS'QA'
p367
F0.0012831325342957565
sS'QC'
p368
F6.8747320227341251e-06
sS'QB'
p369
F4.7741357567037407e-08
sS'QE'
p370
F0.003942148565709549
sS'QD'
p371
F0.0017480488445074582
sS'QG'
p372
F0.010176202798291163
sS'QF'
p373
F0.00019629320023091645
sS'QI'
p374
F0.000299866251016643
sS'QH'
p375
F0.00012712715723633701
sS'QK'
p376
F0.0002120446323228089
sS'QJ'
p377
F4.7741357567037407e-08
sS'QM'
p378
F0.0001157183578774928
sS'QL'
p379
F0.00066419586220505585
sS'QO'
p380
F4.7741357567037407e-08
sS'QN'
p381
F0.00078250881881401335
sS'WG'
p382
F0.0018719519093892151
sS'WF'
p383
F3.1699759738526779e-05
sS'WE'
p384
F0.00045549203388897414
sS'WD'
p385
F0.00068556956129662856
sS'WC'
p386
F3.8193014029915942e-06
sS'WB'
p387
F4.7741357567037407e-08
sS'WA'
p388
F0.00045620782790054123
sS'WO'
p389
F4.7741357567037407e-08
sS'WN'
p390
F0.00040762811172633011
sS'WM'
p391
F3.6712430935878951e-05
sS'WL'
p392
F0.00012440624201210578
sS'WK'
p393
F8.1300228924259795e-05
sS'WJ'
p394
F4.7741357567037407e-08
sS'WI'
p395
F6.4305542532145377e-05
sS'WH'
p396
F2.3965874886867588e-05
sS'WW'
p397
F2.816700494311878e-05
sS'WV'
p398
F0.00018856058822614094
sS'WU'
p399
F4.7741357567037407e-08
sS'WT'
p400
F0.0010276297087841442
sS'WS'
p401
F0.0015095875540502182
sS'WR'
p402
F0.00043091612871121881
sS'WQ'
p403
F0.00019404979426333629
sS'WP'
p404
F0.00011481137661116692
sS'JD'
p405
F4.7741357567037407e-08
sS'JE'
p406
F4.7741357567037407e-08
sS'JF'
p407
F4.7741357567037407e-08
sS'JG'
p408
F4.7741357567037407e-08
sS'WZ'
p409
F4.7741357567037407e-08
sS'WY'
p410
F0.00010717360700024934
sS'WX'
p411
F4.7741357567037407e-08
sS'PR'
p412
F0.002569715977414145
sS'PS'
p413
F0.0027202277856972126
sS'PP'
p414
F0.0019514324081187702
sS'PQ'
p415
F0.001200356386271823
sS'PV'
p416
F0.00064177207077133094
sS'PW'
p417
F0.00037880366752666875
sS'PT'
p418
F0.0023419291507038786
sS'PU'
p419
F4.7741357567037407e-08
sS'PZ'
p420
F4.7741357567037407e-08
sS'PX'
p421
F4.7741357567037407e-08
sS'PY'
p422
F0.001928560969522392
sS'PB'
p423
F4.7741357567037407e-08
sS'PC'
p424
F1.2412676226146276e-05
sS'PA'
p425
F0.0012587676861904261
sS'PF'
p426
F0.00034353554351923917
sS'PG'
p427
F0.0078667808085927556
sS'PD'
p428
F0.001579992695628075
sS'PE'
p429
F0.0011197193450190961
sS'PJ'
p430
F4.7741357567037407e-08
sS'PK'
p431
F0.00032320450359968735
sS'PH'
p432
F0.00031962505237012411
sS'PI'
p433
F0.00039722468298518957
sS'PN'
p434
F0.0015906698197752935
sS'PO'
p435
F4.7741357567037407e-08
sS'PL'
p436
F0.0015417638431263006
sS'PM'
p437
F0.00018541024767432471
sS'CK'
p438
F8.4024438317414195e-06
sS'CJ'
p439
F4.7741357567037407e-08
sS'CI'
p440
F4.8696067315248105e-06
sS'CH'
p441
F6.5882857987159889e-06
sS'CO'
p442
F4.7741357567037407e-08
sS'CN'
p443
F2.6257402560049002e-05
sS'CM'
p444
F3.1509247104708193e-06
sS'CL'
p445
F3.1938458936743336e-05
sS'CC'
p446
F4.1534895817292805e-06
sS'CB'
p447
F4.7741357567037407e-08
sS'CA'
p448
F2.4538757297453667e-05
sS'CG'
p449
F7.3518989821088059e-05
sS'CF'
p450
F7.0656961264954259e-06
sS'CE'
p451
F5.547392011077553e-05
sS'CD'
p452
F1.16488236766141e-05
sS'CZ'
p453
F4.7741357567037407e-08
sS'CY'
p454
F1.8714437496831356e-05
sS'CX'
p455
F4.7741357567037407e-08
sS'CS'
p456
F5.4948794158719177e-05
sS'CR'
p457
F5.9388486699992877e-05
sS'CQ'
p458
F2.0719535027640355e-05
sS'CP'
p459
F3.413448888696451e-05
sS'CW'
p460
F6.6360268417503619e-06
sS'CV'
p461
F9.9778941903393096e-06
sS'CU'
p462
F4.7741357567037407e-08
sS'CT'
p463
F3.4039009424191174e-05
sS'IY'
p464
F0.00074195958371253148
sS'IX'
p465
F4.7741357567037407e-08
sS'VB'
p466
F4.7741357567037407e-08
sS'IZ'
p467
F4.7741357567037407e-08
sS'VD'
p468
F0.0010989748795642417
sS'VE'
p469
F0.0012535227292999069
sS'VF'
p470
F0.00025118348030254398
sS'VG'
p471
F0.0043588208445896415
sS'IQ'
p472
F0.00060837400243616039
sS'IP'
p473
F0.00066481608758780359
sS'IS'
p474
F0.0026007153581670932
sS'IR'
p475
F0.0011440398944396273
sS'IU'
p476
F4.7741357567037407e-08
sS'IT'
p477
F0.00090324039315084752
sS'IW'
p478
F0.00015509964586598389
sS'IV'
p479
F0.00040667367323180215
sS'II'
p480
F0.0001753863707995252
sS'IH'
p481
F0.00013323725567290591
sS'IK'
p482
F0.00020097092414593168
sS'IJ'
p483
F4.7741357567037407e-08
sS'IM'
p484
F0.00010674398072665506
sS'IL'
p485
F0.00064849926099838065
sS'IO'
p486
F4.7741357567037407e-08
sS'IN'
p487
F0.00069878476722801531
sS'IA'
p488
F0.00086894475881717443
sS'VY'
p489
F0.0010941582869463185
sS'IC'
p490
F1.155334206689728e-05
sS'IB'
p491
F4.7741357567037407e-08
sS'IE'
p492
F0.00057449767935375954
sS'ID'
p493
F0.00069940497115822376
sS'IG'
p494
F0.0022268492159876235
sS'IF'
p495
F0.00017156772460792563
sS'BD'
p496
F4.7741357567037407e-08
sS'BE'
p497
F4.7741357567037407e-08
sS'BF'
p498
F4.7741357567037407e-08
sS'BG'
p499
F4.7741357567037407e-08
sS'BA'
p500
F4.7741357567037407e-08
sS'BB'
p501
F4.7741357567037407e-08
sS'BC'
p502
F4.7741357567037407e-08
sS'BL'
p503
F4.7741357567037407e-08
sS'BM'
p504
F4.7741357567037407e-08
sS'BN'
p505
F4.7741357567037407e-08
sS'BO'
p506
F4.7741357567037407e-08
sS'BH'
p507
F4.7741357567037407e-08
sS'BI'
p508
F4.7741357567037407e-08
sS'BJ'
p509
F4.7741357567037407e-08
sS'BK'
p510
F4.7741357567037407e-08
sS'BT'
p511
F4.7741357567037407e-08
sS'BU'
p512
F4.7741357567037407e-08
sS'BV'
p513
F4.7741357567037407e-08
sS'BW'
p514
F4.7741357567037407e-08
sS'BP'
p515
F4.7741357567037407e-08
sS'BQ'
p516
F4.7741357567037407e-08
sS'BR'
p517
F4.7741357567037407e-08
sS'BS'
p518
F4.7741357567037407e-08
sS'BX'
p519
F4.7741357567037407e-08
sS'BY'
p520
F4.7741357567037407e-08
sS'BZ'
p521
F4.7741357567037407e-08
sS'OO'
p522
F4.7741357567037407e-08
sS'ON'
p523
F4.7741357567037407e-08
sS'OM'
p524
F4.7741357567037407e-08
sS'OL'
p525
F4.7741357567037407e-08
sS'OK'
p526
F4.7741357567037407e-08
sS'OJ'
p527
F4.7741357567037407e-08
sS'OI'
p528
F4.7741357567037407e-08
sS'OH'
p529
F4.7741357567037407e-08
sS'OG'
p530
F4.7741357567037407e-08
sS'OF'
p531
F4.7741357567037407e-08
sS'OE'
p532
F4.7741357567037407e-08
sS'OD'
p533
F4.7741357567037407e-08
sS'OC'
p534
F4.7741357567037407e-08
sS'OB'
p535
F4.7741357567037407e-08
sS'OA'
p536
F4.7741357567037407e-08
sS'OZ'
p537
F4.7741357567037407e-08
sS'OY'
p538
F4.7741357567037407e-08
sS'OX'
p539
F4.7741357567037407e-08
sS'OW'
p540
F4.7741357567037407e-08
sS'OV'
p541
F4.7741357567037407e-08
sS'OU'
p542
F4.7741357567037407e-08
sS'OT'
p543
F4.7741357567037407e-08
sS'OS'
p544
F4.7741357567037407e-08
sS'OR'
p545
F4.7741357567037407e-08
sS'OQ'
p546
F4.7741357567037407e-08
sS'OP'
p547
F4.7741357567037407e-08
sS'HZ'
p548
F4.7741357567037407e-08
sS'HX'
p549
F4.7741357567037407e-08
sS'HY'
p550
F0.00037112019032655016
sS'HR'
p551
F0.00058313386507217199
sS'HS'
p552
F0.00057907820703437349
sS'HP'
p553
F0.00038562807292710967
sS'HQ'
p554
F0.00031165476160504544
sS'HV'
p555
F7.3900892539676885e-05
sS'HW'
p556
F4.2059252517802328e-05
sS'HT'
p557
F0.00059926090723080448
sS'HU'
p558
F4.7741357567037407e-08
sS'HJ'
p559
F4.7741357567037407e-08
sS'HK'
p560
F4.8981434422983905e-05
sS'HH'
p561
F5.3612108672793706e-05
sS'HI'
p562
F6.5498999039260663e-05
sS'HN'
p563
F0.00053866386892829356
sS'HO'
p564
F4.7741357567037407e-08
sS'HL'
p565
F0.00028025024319862916
sS'HM'
p566
F3.1461060483332904e-05
sS'HB'
p567
F4.7741357567037407e-08
sS'HC'
p568
F2.1961000890766118e-06
sS'HA'
p569
F0.00012970485956699662
sS'HF'
p570
F5.4662361705005587e-05
sS'HG'
p571
F0.00078446468152800299
sS'HD'
p572
F0.0001344783648560018
sS'HE'
p573
F0.00088769064071594851
sS'UY'
p574
F4.7741357567037407e-08
sS'UX'
p575
F4.7741357567037407e-08
sS'UZ'
p576
F4.7741357567037407e-08
sS'UU'
p577
F4.7741357567037407e-08
sS'UT'
p578
F4.7741357567037407e-08
sS'UW'
p579
F4.7741357567037407e-08
sS'UV'
p580
F4.7741357567037407e-08
sS'UQ'
p581
F4.7741357567037407e-08
sS'UP'
p582
F4.7741357567037407e-08
sS'US'
p583
F4.7741357567037407e-08
sS'UR'
p584
F4.7741357567037407e-08
sS'UM'
p585
F4.7741357567037407e-08
sS'UL'
p586
F4.7741357567037407e-08
sS'UO'
p587
F4.7741357567037407e-08
sS'UN'
p588
F4.7741357567037407e-08
sS'UI'
p589
F4.7741357567037407e-08
sS'UH'
p590
F4.7741357567037407e-08
sS'UK'
p591
F4.7741357567037407e-08
sS'UJ'
p592
F4.7741357567037407e-08
sS'UE'
p593
F4.7741357567037407e-08
sS'UD'
p594
F4.7741357567037407e-08
sS'UG'
p595
F4.7741357567037407e-08
sS'UF'
p596
F4.7741357567037407e-08
sS'UA'
p597
F4.7741357567037407e-08
sS'UC'
p598
F4.7741357567037407e-08
sS'UB'
p599
F4.7741357567037407e-08
sS'NH'
p600
F0.00011777099665323865
sS'NI'
p601
F0.0011198624088039654
sS'NJ'
p602
F4.7741357567037407e-08
sS'NK'
p603
F0.00012306964936578053
sS'NL'
p604
F0.00045864152370741579
sS'NM'
p605
F5.9627179289024799e-05
sS'NN'
p606
F0.0011385559006319487
sS'NO'
p607
F4.7741357567037407e-08
sS'NA'
p608
F0.00035293731657439474
sS'NB'
p609
F4.7741357567037407e-08
sS'NC'
p610
F7.0656961264954259e-06
sS'ND'
p611
F0.0002117582448629139
sS'NE'
p612
F0.012908939757856645
sS'NF'
p613
F0.00010941720787463404
sS'NG'
p614
F0.0010505694532540427
sS'NX'
p615
F4.7741357567037407e-08
sS'NY'
p616
F0.0028111143292405003
sS'NZ'
p617
F4.7741357567037407e-08
sS'NP'
p618
F0.00078064836048724173
sS'NQ'
p619
F0.0039364421263493685
sS'NR'
p620
F0.0011608254972758727
sS'NS'
p621
F0.0040512779522574923
sS'NT'
p622
F0.0097614278715507912
sS'NU'
p623
F4.7741357567037407e-08
sS'NV'
p624
F0.0019507176835806353
sS'NW'
p625
F8.7362870186504988e-05
sS'VN'
p626
F0.0015423358566769203
sS'TZ'
p627
F4.7741357567037407e-08
sS'TX'
p628
F4.7741357567037407e-08
sS'TY'
p629
F0.0022722921300732772
sS'TV'
p630
F0.00108652799372842
sS'TW'
p631
F0.00024478772448789714
sS'TT'
p632
F0.0018912984637899232
sS'TU'
p633
F4.7741357567037407e-08
sS'TR'
p634
F0.001923700721429589
sS'TS'
p635
F0.006065914801790505
sS'TP'
p636
F0.0016315183003974281
sS'TQ'
p637
F0.0008920312401093256
sS'TN'
p638
F0.0022436166532057533
sS'TO'
p639
F4.7741357567037407e-08
sS'TL'
p640
F0.0013054942696960905
sS'TM'
p641
F0.00015266521121748579
sS'TJ'
p642
F4.7741357567037407e-08
sS'TK'
p643
F0.00037856505111055132
sS'TH'
p644
F0.00030148896922427656
sS'TI'
p645
F0.00035155330476944194
sS'TF'
p646
F0.00030817072233495582
sS'TG'
p647
F0.016469600774035913
sS'TD'
p648
F0.0065436013260739062
sS'TE'
p649
F0.010194066161427016
sS'TB'
p650
F4.7741357567037407e-08
sS'TC'
p651
F1.2364935458894378e-05
sS'TA'
p652
F0.0017808369954064225
sS'AA'
p653
F0.001836974676276353
sS'AC'
p654
F0.00011314061949349656
sS'AB'
p655
F4.7741357567037407e-08
sS'AE'
p656
F0.0019824986077149301
sS'AD'
p657
F0.0022146545396020292
sS'AG'
p658
F0.012458001807780185
sS'AF'
p659
F0.00045711449957967076
sS'AI'
p660
F0.0024688065759938989
sS'AH'
p661
F0.00040791444309705275
sS'AK'
p662
F0.00086045414197428679
sS'AJ'
p663
F4.7741357567037407e-08
sS'AM'
p664
F0.00021848832848709218
sS'AL'
p665
F0.0016741285895590134
sS'AO'
p666
F4.7741357567037407e-08
sS'AN'
p667
F0.0041561165383733984
sS'AQ'
p668
F0.0010805667866411947
sS'AP'
p669
F0.0018665672106682183
sS'AS'
p670
F0.083768504532775942
sS'AR'
p671
F0.0050322418624607493
sS'AU'
p672
F4.7741357567037407e-08
sS'AT'
p673
F0.0045094438449399784
sS'AW'
p674
F0.002068402107835115
sS'AV'
p675
F0.0011114216104770244
sS'AY'
p676
F0.0022775317462971228
sS'AX'
p677
F4.7741357567037407e-08
sS'AZ'
p678
F4.7741357567037407e-08
sS'VK'
p679
F0.00022903680814221559
s.